

Microchip MPLAB XC8 Assembler V2.40 build 20220703182018 
                                                                                               Sun Nov 13 05:10:34 2022

Microchip MPLAB XC8 C Compiler v2.40 (Free license) build 20220703182018 Og1 
     1                           	processor	16F887
     2                           	pagewidth 120
     3                           	opt	flic
     4                           	psect	cinit,global,class=CODE,merge=1,delta=2
     5                           	psect	bssBANK0,global,class=BANK0,space=1,delta=1,noexec
     6                           	psect	cstackCOMMON,global,class=COMMON,space=1,delta=1,noexec
     7                           	psect	cstackBANK0,global,class=BANK0,space=1,delta=1,noexec
     8                           	psect	maintext,global,class=CODE,split=1,delta=2
     9                           	psect	text1,local,class=CODE,merge=1,delta=2
    10                           	psect	text2,local,class=CODE,merge=1,delta=2
    11                           	psect	text3,local,class=CODE,merge=1,delta=2
    12                           	psect	text4,local,class=CODE,merge=1,delta=2
    13                           	psect	text5,local,class=CODE,merge=1,delta=2
    14                           	psect	text6,local,class=CODE,merge=1,delta=2,group=1
    15                           	psect	text7,local,class=CODE,merge=1,delta=2,group=1
    16                           	psect	text8,local,class=CODE,merge=1,delta=2,group=1
    17                           	psect	text9,local,class=CODE,merge=1,delta=2,group=1
    18                           	psect	text10,local,class=CODE,merge=1,delta=2,group=1
    19                           	psect	text11,local,class=CODE,merge=1,delta=2
    20                           	psect	intentry,global,class=CODE,delta=2
    21                           	psect	idloc,global,abs,ovrld,class=IDLOC,space=5,delta=2,noexec
    22                           	psect	config,global,abs,ovrld,class=CONFIG,space=4,delta=2,noexec
    23                           	dabs	1,0x7E,2
    24     0000                     
    25                           ; Version 2.40
    26                           ; Generated 17/11/2021 GMT
    27                           ; 
    28                           ; Copyright © 2021, Microchip Technology Inc. and its subsidiaries ("Microchip")
    29                           ; All rights reserved.
    30                           ; 
    31                           ; This software is developed by Microchip Technology Inc. and its subsidiaries ("Microch
      +                          ip").
    32                           ; 
    33                           ; Redistribution and use in source and binary forms, with or without modification, are
    34                           ; permitted provided that the following conditions are met:
    35                           ; 
    36                           ;     1. Redistributions of source code must retain the above copyright notice, this lis
      +                          t of
    37                           ;        conditions and the following disclaimer.
    38                           ; 
    39                           ;     2. Redistributions in binary form must reproduce the above copyright notice, this 
      +                          list
    40                           ;        of conditions and the following disclaimer in the documentation and/or other
    41                           ;        materials provided with the distribution. Publication is not required when
    42                           ;        this file is used in an embedded application.
    43                           ; 
    44                           ;     3. Microchip's name may not be used to endorse or promote products derived from th
      +                          is
    45                           ;        software without specific prior written permission.
    46                           ; 
    47                           ; THIS SOFTWARE IS PROVIDED BY MICROCHIP "AS IS" AND ANY EXPRESS OR IMPLIED WARRANTIES,
    48                           ; INCLUDING, BUT NOT LIMITED TO, THE IMPLIED WARRANTIES OF MERCHANTABILITY AND FITNESS F
      +                          OR
    49                           ; PURPOSE ARE DISCLAIMED.  IN NO EVENT SHALL MICROCHIP BE LIABLE FOR ANY DIRECT, INDIREC
      +                          T,
    50                           ; INCIDENTAL, SPECIAL, EXEMPLARY, OR CONSEQUENTIAL DAMAGES (INCLUDING BUT NOT LIMITED TO
    51                           ; PROCUREMENT OF SUBSTITUTE GOODS OR SERVICES; LOSS OF USE, DATA OR PROFITS; OR BUSINESS
    52                           ; INTERRUPTION) HOWSOEVER CAUSED AND ON ANY THEORY OF LIABILITY, WHETHER IN CONTRACT, ST
      +                          RICT
    53                           ; LIABILITY, OR TORT (INCLUDING NEGLIGENCE OR OTHERWISE) ARISING IN ANY WAY OUT OF THE U
      +                          SE OF
    54                           ; THIS SOFTWARE, EVEN IF ADVISED OF THE POSSIBILITY OF SUCH DAMAGE.
    55                           ; 
    56                           ; 
    57                           ; Code-generator required, PIC16F887 Definitions
    58                           ; 
    59                           ; SFR Addresses
    60     0000                     	;# 
    61     0001                     	;# 
    62     0002                     	;# 
    63     0003                     	;# 
    64     0004                     	;# 
    65     0005                     	;# 
    66     0006                     	;# 
    67     0007                     	;# 
    68     0008                     	;# 
    69     0009                     	;# 
    70     000A                     	;# 
    71     000B                     	;# 
    72     000C                     	;# 
    73     000D                     	;# 
    74     000E                     	;# 
    75     000E                     	;# 
    76     000F                     	;# 
    77     0010                     	;# 
    78     0011                     	;# 
    79     0012                     	;# 
    80     0013                     	;# 
    81     0014                     	;# 
    82     0015                     	;# 
    83     0015                     	;# 
    84     0016                     	;# 
    85     0017                     	;# 
    86     0018                     	;# 
    87     0019                     	;# 
    88     001A                     	;# 
    89     001B                     	;# 
    90     001B                     	;# 
    91     001C                     	;# 
    92     001D                     	;# 
    93     001E                     	;# 
    94     001F                     	;# 
    95     0081                     	;# 
    96     0085                     	;# 
    97     0086                     	;# 
    98     0087                     	;# 
    99     0088                     	;# 
   100     0089                     	;# 
   101     008C                     	;# 
   102     008D                     	;# 
   103     008E                     	;# 
   104     008F                     	;# 
   105     0090                     	;# 
   106     0091                     	;# 
   107     0092                     	;# 
   108     0093                     	;# 
   109     0093                     	;# 
   110     0093                     	;# 
   111     0094                     	;# 
   112     0095                     	;# 
   113     0096                     	;# 
   114     0097                     	;# 
   115     0098                     	;# 
   116     0099                     	;# 
   117     009A                     	;# 
   118     009B                     	;# 
   119     009C                     	;# 
   120     009D                     	;# 
   121     009E                     	;# 
   122     009F                     	;# 
   123     0105                     	;# 
   124     0107                     	;# 
   125     0108                     	;# 
   126     0109                     	;# 
   127     010C                     	;# 
   128     010C                     	;# 
   129     010D                     	;# 
   130     010E                     	;# 
   131     010F                     	;# 
   132     0185                     	;# 
   133     0187                     	;# 
   134     0188                     	;# 
   135     0189                     	;# 
   136     018C                     	;# 
   137     018D                     	;# 
   138     0000                     	;# 
   139     0001                     	;# 
   140     0002                     	;# 
   141     0003                     	;# 
   142     0004                     	;# 
   143     0005                     	;# 
   144     0006                     	;# 
   145     0007                     	;# 
   146     0008                     	;# 
   147     0009                     	;# 
   148     000A                     	;# 
   149     000B                     	;# 
   150     000C                     	;# 
   151     000D                     	;# 
   152     000E                     	;# 
   153     000E                     	;# 
   154     000F                     	;# 
   155     0010                     	;# 
   156     0011                     	;# 
   157     0012                     	;# 
   158     0013                     	;# 
   159     0014                     	;# 
   160     0015                     	;# 
   161     0015                     	;# 
   162     0016                     	;# 
   163     0017                     	;# 
   164     0018                     	;# 
   165     0019                     	;# 
   166     001A                     	;# 
   167     001B                     	;# 
   168     001B                     	;# 
   169     001C                     	;# 
   170     001D                     	;# 
   171     001E                     	;# 
   172     001F                     	;# 
   173     0081                     	;# 
   174     0085                     	;# 
   175     0086                     	;# 
   176     0087                     	;# 
   177     0088                     	;# 
   178     0089                     	;# 
   179     008C                     	;# 
   180     008D                     	;# 
   181     008E                     	;# 
   182     008F                     	;# 
   183     0090                     	;# 
   184     0091                     	;# 
   185     0092                     	;# 
   186     0093                     	;# 
   187     0093                     	;# 
   188     0093                     	;# 
   189     0094                     	;# 
   190     0095                     	;# 
   191     0096                     	;# 
   192     0097                     	;# 
   193     0098                     	;# 
   194     0099                     	;# 
   195     009A                     	;# 
   196     009B                     	;# 
   197     009C                     	;# 
   198     009D                     	;# 
   199     009E                     	;# 
   200     009F                     	;# 
   201     0105                     	;# 
   202     0107                     	;# 
   203     0108                     	;# 
   204     0109                     	;# 
   205     010C                     	;# 
   206     010C                     	;# 
   207     010D                     	;# 
   208     010E                     	;# 
   209     010F                     	;# 
   210     0185                     	;# 
   211     0187                     	;# 
   212     0188                     	;# 
   213     0189                     	;# 
   214     018C                     	;# 
   215     018D                     	;# 
   216     0012                     _T2CONbits	set	18
   217     001D                     _CCP2CONbits	set	29
   218     0017                     _CCP1CONbits	set	23
   219     0001                     _TMR0	set	1
   220     0009                     _PORTE	set	9
   221     0007                     _PORTC	set	7
   222     0006                     _PORTB	set	6
   223     0005                     _PORTA	set	5
   224     0008                     _PORTD	set	8
   225     001B                     _CCPR2L	set	27
   226     0015                     _CCPR1L	set	21
   227     001E                     _ADRESH	set	30
   228     001F                     _ADCON0bits	set	31
   229     0009                     _PORTEbits	set	9
   230     000C                     _PIR1bits	set	12
   231     000B                     _INTCONbits	set	11
   232     009F                     _ADCON1bits	set	159
   233     0092                     _PR2	set	146
   234     0087                     _TRISCbits	set	135
   235     0081                     _OPTION_REGbits	set	129
   236     008C                     _PIE1bits	set	140
   237     008F                     _OSCCONbits	set	143
   238     0089                     _TRISE	set	137
   239     0088                     _TRISD	set	136
   240     0087                     _TRISC	set	135
   241     0086                     _TRISB	set	134
   242     0085                     _TRISA	set	133
   243     0189                     _ANSELH	set	393
   244     0188                     _ANSEL	set	392
   245                           
   246                           	psect	cinit
   247     000F                     start_initialization:	
   248                           ; #config settings
   249                           
   250     000F                     __initialization:
   251                           
   252                           ; Clear objects allocated to BANK0
   253     000F  1283               	bcf	3,5	;RP0=0, select bank0
   254     0010  1303               	bcf	3,6	;RP1=0, select bank0
   255     0011  01E2               	clrf	__pbssBANK0& (0+127)
   256     0012  01E3               	clrf	(__pbssBANK0+1)& (0+127)
   257     0013  01E4               	clrf	(__pbssBANK0+2)& (0+127)
   258     0014  01E5               	clrf	(__pbssBANK0+3)& (0+127)
   259     0015  01E6               	clrf	(__pbssBANK0+4)& (0+127)
   260     0016  01E7               	clrf	(__pbssBANK0+5)& (0+127)
   261     0017                     end_of_initialization:	
   262                           ;End of C runtime variable initialization code
   263                           
   264     0017                     __end_of__initialization:
   265     0017  0183               	clrf	3
   266     0018  120A  118A  2DB8   	ljmp	_main	;jump to C main() function
   267                           
   268                           	psect	bssBANK0
   269     0062                     __pbssBANK0:
   270     0062                     _equivalent:
   271     0062                     	ds	2
   272     0064                     _ADC_Voltaje:
   273     0064                     	ds	2
   274     0066                     _modo:
   275     0066                     	ds	2
   276                           
   277                           	psect	cstackCOMMON
   278     0070                     __pcstackCOMMON:
   279     0070                     ?_setup:
   280     0070                     ?_setupADC:	
   281                           ; 1 bytes @ 0x0
   282                           
   283     0070                     ?_setupPWM:	
   284                           ; 1 bytes @ 0x0
   285                           
   286     0070                     ?_incModo:	
   287                           ; 1 bytes @ 0x0
   288                           
   289     0070                     ?_isr:	
   290                           ; 1 bytes @ 0x0
   291                           
   292     0070                     ??_isr:	
   293                           ; 1 bytes @ 0x0
   294                           
   295     0070                     ?_main:	
   296                           ; 1 bytes @ 0x0
   297                           
   298                           
   299                           ; 1 bytes @ 0x0
   300     0070                     	ds	2
   301     0072                     ??_setup:
   302     0072                     ??_setupADC:	
   303                           ; 1 bytes @ 0x2
   304                           
   305     0072                     ??_setupPWM:	
   306                           ; 1 bytes @ 0x2
   307                           
   308     0072                     ??_incModo:	
   309                           ; 1 bytes @ 0x2
   310                           
   311     0072                     ?__Umul8_16:	
   312                           ; 1 bytes @ 0x2
   313                           
   314     0072                     ?___xxtofl:	
   315                           ; 2 bytes @ 0x2
   316                           
   317     0072                     __Umul8_16@multiplicand:	
   318                           ; 4 bytes @ 0x2
   319                           
   320     0072                     ___xxtofl@val:	
   321                           ; 1 bytes @ 0x2
   322                           
   323                           
   324                           ; 4 bytes @ 0x2
   325     0072                     	ds	2
   326     0074                     ??__Umul8_16:
   327                           
   328                           ; 1 bytes @ 0x4
   329     0074                     	ds	2
   330     0076                     ??___xxtofl:
   331     0076                     __Umul8_16@product:	
   332                           ; 1 bytes @ 0x6
   333                           
   334                           
   335                           ; 2 bytes @ 0x6
   336     0076                     	ds	2
   337     0078                     __Umul8_16@word_mpld:
   338                           
   339                           ; 2 bytes @ 0x8
   340     0078                     	ds	2
   341     007A                     __Umul8_16@multiplier:
   342                           
   343                           ; 1 bytes @ 0xA
   344     007A                     	ds	1
   345     007B                     ??_ADC_to_PWM:
   346                           
   347                           	psect	cstackBANK0
   348     0020                     __pcstackBANK0:	
   349                           ; 1 bytes @ 0xB
   350                           
   351     0020                     ___xxtofl@sign:
   352                           
   353                           ; 1 bytes @ 0x0
   354     0020                     	ds	1
   355     0021                     ___xxtofl@exp:
   356                           
   357                           ; 1 bytes @ 0x1
   358     0021                     	ds	1
   359     0022                     ___xxtofl@arg:
   360                           
   361                           ; 4 bytes @ 0x2
   362     0022                     	ds	4
   363     0026                     ?___flmul:
   364     0026                     ___flmul@b:	
   365                           ; 4 bytes @ 0x6
   366                           
   367                           
   368                           ; 4 bytes @ 0x6
   369     0026                     	ds	4
   370     002A                     ___flmul@a:
   371                           
   372                           ; 4 bytes @ 0xA
   373     002A                     	ds	4
   374     002E                     ??___flmul:
   375                           
   376                           ; 1 bytes @ 0xE
   377     002E                     	ds	5
   378     0033                     ___flmul@sign:
   379                           
   380                           ; 1 bytes @ 0x13
   381     0033                     	ds	1
   382     0034                     ___flmul@grs:
   383                           
   384                           ; 4 bytes @ 0x14
   385     0034                     	ds	4
   386     0038                     ___flmul@aexp:
   387                           
   388                           ; 1 bytes @ 0x18
   389     0038                     	ds	1
   390     0039                     ___flmul@bexp:
   391                           
   392                           ; 1 bytes @ 0x19
   393     0039                     	ds	1
   394     003A                     ___flmul@prod:
   395                           
   396                           ; 4 bytes @ 0x1A
   397     003A                     	ds	4
   398     003E                     ___flmul@temp:
   399                           
   400                           ; 2 bytes @ 0x1E
   401     003E                     	ds	2
   402     0040                     ?___fladd:
   403     0040                     ___fladd@b:	
   404                           ; 4 bytes @ 0x20
   405                           
   406                           
   407                           ; 4 bytes @ 0x20
   408     0040                     	ds	4
   409     0044                     ___fladd@a:
   410                           
   411                           ; 4 bytes @ 0x24
   412     0044                     	ds	4
   413     0048                     ??___fladd:
   414                           
   415                           ; 1 bytes @ 0x28
   416     0048                     	ds	8
   417     0050                     ___fladd@signs:
   418                           
   419                           ; 1 bytes @ 0x30
   420     0050                     	ds	1
   421     0051                     ___fladd@aexp:
   422                           
   423                           ; 1 bytes @ 0x31
   424     0051                     	ds	1
   425     0052                     ___fladd@bexp:
   426                           
   427                           ; 1 bytes @ 0x32
   428     0052                     	ds	1
   429     0053                     ___fladd@grs:
   430                           
   431                           ; 1 bytes @ 0x33
   432     0053                     	ds	1
   433     0054                     ?___fltol:
   434     0054                     ___fltol@f1:	
   435                           ; 4 bytes @ 0x34
   436                           
   437                           
   438                           ; 4 bytes @ 0x34
   439     0054                     	ds	4
   440     0058                     ??___fltol:
   441                           
   442                           ; 1 bytes @ 0x38
   443     0058                     	ds	4
   444     005C                     ___fltol@sign1:
   445                           
   446                           ; 1 bytes @ 0x3C
   447     005C                     	ds	1
   448     005D                     ___fltol@exp1:
   449                           
   450                           ; 1 bytes @ 0x3D
   451     005D                     	ds	1
   452     005E                     ?_ADC_to_PWM:
   453     005E                     ADC_to_PWM@voltaje:	
   454                           ; 1 bytes @ 0x3E
   455                           
   456                           
   457                           ; 2 bytes @ 0x3E
   458     005E                     	ds	2
   459     0060                     ??_main:
   460                           
   461                           ; 1 bytes @ 0x40
   462     0060                     	ds	2
   463                           
   464                           	psect	maintext
   465     05B8                     __pmaintext:	
   466 ;;
   467 ;;Main: autosize = 0, tempsize = 2, incstack = 0, save=0
   468 ;;
   469 ;; *************** function _main *****************
   470 ;; Defined at:
   471 ;;		line 80 in file "main.c"
   472 ;; Parameters:    Size  Location     Type
   473 ;;		None
   474 ;; Auto vars:     Size  Location     Type
   475 ;;		None
   476 ;; Return value:  Size  Location     Type
   477 ;;                  1    wreg      void 
   478 ;; Registers used:
   479 ;;		wreg, fsr0l, fsr0h, status,2, status,0, btemp+1, pclath, cstack
   480 ;; Tracked objects:
   481 ;;		On entry : B00/0
   482 ;;		On exit  : 0/0
   483 ;;		Unchanged: 0/0
   484 ;; Data sizes:     COMMON   BANK0   BANK1   BANK3   BANK2
   485 ;;      Params:         0       0       0       0       0
   486 ;;      Locals:         0       0       0       0       0
   487 ;;      Temps:          0       2       0       0       0
   488 ;;      Totals:         0       2       0       0       0
   489 ;;Total ram usage:        2 bytes
   490 ;; Hardware stack levels required when called: 4
   491 ;; This function calls:
   492 ;;		_ADC_to_PWM
   493 ;;		_incModo
   494 ;;		_setup
   495 ;;		_setupADC
   496 ;;		_setupPWM
   497 ;; This function is called by:
   498 ;;		Startup code after reset
   499 ;; This function uses a non-reentrant model
   500 ;;
   501                           
   502     05B8                     _main:	
   503                           ;psect for function _main
   504                           
   505     05B8                     l1837:	
   506                           ;incstack = 0
   507                           ; Regs used in _main: [wreg-fsr0h+status,2+status,0+btemp+1+pclath+cstack]
   508                           
   509                           
   510                           ;main.c: 81:     setup();
   511     05B8  120A  118A  27AF  120A  118A  	fcall	_setup
   512                           
   513                           ;main.c: 82:     setupADC();
   514     05BD  120A  118A  27E0  120A  118A  	fcall	_setupADC
   515                           
   516                           ;main.c: 83:     setupPWM();
   517     05C2  120A  158A  275F  120A  118A  	fcall	_setupPWM
   518     05C7                     l1839:
   519                           
   520                           ;main.c: 84:     modo = 1;
   521     05C7  3001               	movlw	1
   522     05C8  1283               	bcf	3,5	;RP0=0, select bank0
   523     05C9  1303               	bcf	3,6	;RP1=0, select bank0
   524     05CA  00E6               	movwf	_modo
   525     05CB  3000               	movlw	0
   526     05CC  00E7               	movwf	_modo+1
   527     05CD                     l1841:
   528                           
   529                           ;main.c: 90:         if (PORTEbits.RE2){
   530     05CD  1283               	bcf	3,5	;RP0=0, select bank0
   531     05CE  1303               	bcf	3,6	;RP1=0, select bank0
   532     05CF  1D09               	btfss	9,2	;volatile
   533     05D0  2DD2               	goto	u2321
   534     05D1  2DD3               	goto	u2320
   535     05D2                     u2321:
   536     05D2  2E68               	goto	l1893
   537     05D3                     u2320:
   538     05D3                     l89:	
   539                           ;main.c: 93:             }
   540                           
   541                           
   542                           ;main.c: 91:             while(PORTEbits.RE2){
   543     05D3  1909               	btfsc	9,2	;volatile
   544     05D4  2DD6               	goto	u2331
   545     05D5  2DD7               	goto	u2330
   546     05D6                     u2331:
   547     05D6  2DD3               	goto	l89
   548     05D7                     u2330:
   549     05D7                     l1845:
   550                           
   551                           ;main.c: 94:             incModo();
   552     05D7  120A  158A  274A  120A  118A  	fcall	_incModo
   553     05DC  2E68               	goto	l1893
   554     05DD                     l1847:
   555                           
   556                           ;main.c: 102:                 ADCON0bits.CHS = 0b0000;
   557     05DD  30C3               	movlw	-61
   558     05DE  059F               	andwf	31,f	;volatile
   559     05DF                     l1849:
   560                           
   561                           ;main.c: 103:                 _delay((unsigned long)((100)*(500000/4000000.0)));
   562     05DF  3003               	movlw	3
   563     05E0  1283               	bcf	3,5	;RP0=0, select bank0
   564     05E1  1303               	bcf	3,6	;RP1=0, select bank0
   565     05E2  00E0               	movwf	??_main
   566     05E3                     u2387:
   567     05E3  0BE0               	decfsz	??_main,f
   568     05E4  2DE3               	goto	u2387
   569     05E5                     l1851:
   570                           
   571                           ;main.c: 104:                 ADCON0bits.GO = 1;
   572     05E5  1283               	bcf	3,5	;RP0=0, select bank0
   573     05E6  1303               	bcf	3,6	;RP1=0, select bank0
   574     05E7  149F               	bsf	31,1	;volatile
   575     05E8                     l94:	
   576                           ;main.c: 107:                 }
   577                           
   578                           
   579                           ;main.c: 105:                 while (ADCON0bits.GO == 1){
   580     05E8  189F               	btfsc	31,1	;volatile
   581     05E9  2DEB               	goto	u2341
   582     05EA  2DEC               	goto	u2340
   583     05EB                     u2341:
   584     05EB  2DE8               	goto	l94
   585     05EC                     u2340:
   586     05EC                     l1853:
   587                           
   588                           ;main.c: 108:                 ADC_Voltaje = ADRESH;
   589     05EC  081E               	movf	30,w	;volatile
   590     05ED  00E0               	movwf	??_main
   591     05EE  01E1               	clrf	??_main+1
   592     05EF  0860               	movf	??_main,w
   593     05F0  00E4               	movwf	_ADC_Voltaje
   594     05F1  0861               	movf	??_main+1,w
   595     05F2  00E5               	movwf	_ADC_Voltaje+1
   596     05F3                     l1855:
   597                           
   598                           ;main.c: 109:                 ADC_to_PWM(ADC_Voltaje);
   599     05F3  0865               	movf	_ADC_Voltaje+1,w
   600     05F4  00DF               	movwf	ADC_to_PWM@voltaje+1
   601     05F5  0864               	movf	_ADC_Voltaje,w
   602     05F6  00DE               	movwf	ADC_to_PWM@voltaje
   603     05F7  120A  158A  27AB  120A  118A  	fcall	_ADC_to_PWM
   604     05FC                     l1857:
   605                           
   606                           ;main.c: 110:                 CCPR1L = equivalent;
   607     05FC  1283               	bcf	3,5	;RP0=0, select bank0
   608     05FD  1303               	bcf	3,6	;RP1=0, select bank0
   609     05FE  0862               	movf	_equivalent,w
   610     05FF  0095               	movwf	21	;volatile
   611     0600                     l1859:
   612                           
   613                           ;main.c: 111:                 _delay((unsigned long)((100)*(500000/4000000.0)));
   614     0600  3003               	movlw	3
   615     0601  1283               	bcf	3,5	;RP0=0, select bank0
   616     0602  1303               	bcf	3,6	;RP1=0, select bank0
   617     0603  00E0               	movwf	??_main
   618     0604                     u2397:
   619     0604  0BE0               	decfsz	??_main,f
   620     0605  2E04               	goto	u2397
   621     0606                     l1861:
   622                           
   623                           ;main.c: 114:                 ADCON0bits.CHS = 0b0001;
   624     0606  1283               	bcf	3,5	;RP0=0, select bank0
   625     0607  1303               	bcf	3,6	;RP1=0, select bank0
   626     0608  081F               	movf	31,w	;volatile
   627     0609  39C3               	andlw	-61
   628     060A  3804               	iorlw	4
   629     060B  009F               	movwf	31	;volatile
   630     060C                     l1863:
   631                           
   632                           ;main.c: 115:                 _delay((unsigned long)((100)*(500000/4000000.0)));
   633     060C  3003               	movlw	3
   634     060D  1283               	bcf	3,5	;RP0=0, select bank0
   635     060E  1303               	bcf	3,6	;RP1=0, select bank0
   636     060F  00E0               	movwf	??_main
   637     0610                     u2407:
   638     0610  0BE0               	decfsz	??_main,f
   639     0611  2E10               	goto	u2407
   640     0612                     l1865:
   641                           
   642                           ;main.c: 116:                 ADCON0bits.GO = 1;
   643     0612  1283               	bcf	3,5	;RP0=0, select bank0
   644     0613  1303               	bcf	3,6	;RP1=0, select bank0
   645     0614  149F               	bsf	31,1	;volatile
   646     0615                     l97:	
   647                           ;main.c: 119:                 }
   648                           
   649                           
   650                           ;main.c: 117:                 while (ADCON0bits.GO == 1){
   651     0615  189F               	btfsc	31,1	;volatile
   652     0616  2E18               	goto	u2351
   653     0617  2E19               	goto	u2350
   654     0618                     u2351:
   655     0618  2E15               	goto	l97
   656     0619                     u2350:
   657     0619                     l1867:
   658                           
   659                           ;main.c: 120:                 ADC_Voltaje = ADRESH;
   660     0619  081E               	movf	30,w	;volatile
   661     061A  00E0               	movwf	??_main
   662     061B  01E1               	clrf	??_main+1
   663     061C  0860               	movf	??_main,w
   664     061D  00E4               	movwf	_ADC_Voltaje
   665     061E  0861               	movf	??_main+1,w
   666     061F  00E5               	movwf	_ADC_Voltaje+1
   667     0620                     l1869:
   668                           
   669                           ;main.c: 121:                 ADC_to_PWM(ADC_Voltaje);
   670     0620  0865               	movf	_ADC_Voltaje+1,w
   671     0621  00DF               	movwf	ADC_to_PWM@voltaje+1
   672     0622  0864               	movf	_ADC_Voltaje,w
   673     0623  00DE               	movwf	ADC_to_PWM@voltaje
   674     0624  120A  158A  27AB  120A  118A  	fcall	_ADC_to_PWM
   675     0629                     l1871:
   676                           
   677                           ;main.c: 122:                 CCPR2L = equivalent;
   678     0629  1283               	bcf	3,5	;RP0=0, select bank0
   679     062A  1303               	bcf	3,6	;RP1=0, select bank0
   680     062B  0862               	movf	_equivalent,w
   681     062C  009B               	movwf	27	;volatile
   682     062D                     l1873:
   683                           
   684                           ;main.c: 123:                 _delay((unsigned long)((100)*(500000/4000000.0)));
   685     062D  3003               	movlw	3
   686     062E  1283               	bcf	3,5	;RP0=0, select bank0
   687     062F  1303               	bcf	3,6	;RP1=0, select bank0
   688     0630  00E0               	movwf	??_main
   689     0631                     u2417:
   690     0631  0BE0               	decfsz	??_main,f
   691     0632  2E31               	goto	u2417
   692     0633                     l1875:
   693                           
   694                           ;main.c: 126:                 ADCON0bits.CHS = 0b0010;
   695     0633  1283               	bcf	3,5	;RP0=0, select bank0
   696     0634  1303               	bcf	3,6	;RP1=0, select bank0
   697     0635  081F               	movf	31,w	;volatile
   698     0636  39C3               	andlw	-61
   699     0637  3808               	iorlw	8
   700     0638  009F               	movwf	31	;volatile
   701     0639                     l1877:
   702                           
   703                           ;main.c: 127:                 _delay((unsigned long)((100)*(500000/4000000.0)));
   704     0639  3003               	movlw	3
   705     063A  1283               	bcf	3,5	;RP0=0, select bank0
   706     063B  1303               	bcf	3,6	;RP1=0, select bank0
   707     063C  00E0               	movwf	??_main
   708     063D                     u2427:
   709     063D  0BE0               	decfsz	??_main,f
   710     063E  2E3D               	goto	u2427
   711     063F                     l1879:
   712                           
   713                           ;main.c: 128:                 ADCON0bits.GO = 1;
   714     063F  1283               	bcf	3,5	;RP0=0, select bank0
   715     0640  1303               	bcf	3,6	;RP1=0, select bank0
   716     0641  149F               	bsf	31,1	;volatile
   717     0642                     l100:	
   718                           ;main.c: 131:                 }
   719                           
   720                           
   721                           ;main.c: 129:                 while (ADCON0bits.GO == 1){
   722     0642  189F               	btfsc	31,1	;volatile
   723     0643  2E45               	goto	u2361
   724     0644  2E46               	goto	u2360
   725     0645                     u2361:
   726     0645  2E42               	goto	l100
   727     0646                     u2360:
   728     0646                     l1881:
   729                           
   730                           ;main.c: 132:                 PORTD = ADRESH;
   731     0646  081E               	movf	30,w	;volatile
   732     0647  0088               	movwf	8	;volatile
   733                           
   734                           ;main.c: 133:                 _delay((unsigned long)((100)*(500000/4000000.0)));
   735     0648  3003               	movlw	3
   736     0649  1283               	bcf	3,5	;RP0=0, select bank0
   737     064A  1303               	bcf	3,6	;RP1=0, select bank0
   738     064B  00E0               	movwf	??_main
   739     064C                     u2437:
   740     064C  0BE0               	decfsz	??_main,f
   741     064D  2E4C               	goto	u2437
   742     064E                     l1883:
   743                           
   744                           ;main.c: 136:                 ADCON0bits.CHS = 0b0011;
   745     064E  1283               	bcf	3,5	;RP0=0, select bank0
   746     064F  1303               	bcf	3,6	;RP1=0, select bank0
   747     0650  081F               	movf	31,w	;volatile
   748     0651  39C3               	andlw	-61
   749     0652  380C               	iorlw	12
   750     0653  009F               	movwf	31	;volatile
   751     0654                     l1885:
   752                           
   753                           ;main.c: 137:                 _delay((unsigned long)((100)*(500000/4000000.0)));
   754     0654  3003               	movlw	3
   755     0655  1283               	bcf	3,5	;RP0=0, select bank0
   756     0656  1303               	bcf	3,6	;RP1=0, select bank0
   757     0657  00E0               	movwf	??_main
   758     0658                     u2447:
   759     0658  0BE0               	decfsz	??_main,f
   760     0659  2E58               	goto	u2447
   761     065A                     l1887:
   762                           
   763                           ;main.c: 138:                 ADCON0bits.GO = 1;
   764     065A  1283               	bcf	3,5	;RP0=0, select bank0
   765     065B  1303               	bcf	3,6	;RP1=0, select bank0
   766     065C  149F               	bsf	31,1	;volatile
   767     065D                     l103:	
   768                           ;main.c: 141:                 }
   769                           
   770                           
   771                           ;main.c: 139:                 while (ADCON0bits.GO == 1){
   772     065D  189F               	btfsc	31,1	;volatile
   773     065E  2E60               	goto	u2371
   774     065F  2E61               	goto	u2370
   775     0660                     u2371:
   776     0660  2E5D               	goto	l103
   777     0661                     u2370:
   778     0661                     l1889:
   779                           
   780                           ;main.c: 143:                 _delay((unsigned long)((100)*(500000/4000000.0)));
   781     0661  3003               	movlw	3
   782     0662  1283               	bcf	3,5	;RP0=0, select bank0
   783     0663  1303               	bcf	3,6	;RP1=0, select bank0
   784     0664  00E0               	movwf	??_main
   785     0665                     u2457:
   786     0665  0BE0               	decfsz	??_main,f
   787     0666  2E65               	goto	u2457
   788                           
   789                           ;main.c: 145:                 break;
   790     0667  2DCD               	goto	l1841
   791     0668                     l1893:
   792                           
   793                           ; Switch on 2 bytes has been partitioned into a top level switch of size 1, and 1 sub-sw
      +                          itches
   794                           ; Switch size 1, requested type "simple"
   795                           ; Number of cases is 1, Range of values is 0 to 0
   796                           ; switch strategies available:
   797                           ; Name         Instructions Cycles
   798                           ; simple_byte            4     3 (average)
   799                           ; direct_byte           11     8 (fixed)
   800                           ; jumptable            260     6 (fixed)
   801                           ;	Chosen strategy is simple_byte
   802     0668  1283               	bcf	3,5	;RP0=0, select bank0
   803     0669  1303               	bcf	3,6	;RP1=0, select bank0
   804     066A  0867               	movf	_modo+1,w
   805     066B  3A00               	xorlw	0	; case 0
   806     066C  1903               	skipnz
   807     066D  2E6F               	goto	l1919
   808     066E  2DCD               	goto	l1841
   809     066F                     l1919:
   810                           
   811                           ; Switch size 1, requested type "simple"
   812                           ; Number of cases is 3, Range of values is 1 to 3
   813                           ; switch strategies available:
   814                           ; Name         Instructions Cycles
   815                           ; simple_byte           10     6 (average)
   816                           ; direct_byte           20    11 (fixed)
   817                           ; jumptable            263     9 (fixed)
   818                           ;	Chosen strategy is simple_byte
   819     066F  0866               	movf	_modo,w
   820     0670  3A01               	xorlw	1	; case 1
   821     0671  1903               	skipnz
   822     0672  2DDD               	goto	l1847
   823     0673  3A03               	xorlw	3	; case 2
   824     0674  1903               	skipnz
   825     0675  2DCD               	goto	l1841
   826     0676  3A01               	xorlw	1	; case 3
   827     0677  1903               	skipnz
   828     0678  2DCD               	goto	l1841
   829     0679  2DCD               	goto	l1841
   830     067A  120A  118A  280C   	ljmp	start
   831     067D                     __end_of_main:
   832                           
   833                           	psect	text1
   834     0F5F                     __ptext1:	
   835 ;; *************** function _setupPWM *****************
   836 ;; Defined at:
   837 ;;		line 213 in file "main.c"
   838 ;; Parameters:    Size  Location     Type
   839 ;;		None
   840 ;; Auto vars:     Size  Location     Type
   841 ;;		None
   842 ;; Return value:  Size  Location     Type
   843 ;;                  1    wreg      void 
   844 ;; Registers used:
   845 ;;		wreg, status,2, status,0
   846 ;; Tracked objects:
   847 ;;		On entry : 0/0
   848 ;;		On exit  : 0/0
   849 ;;		Unchanged: 0/0
   850 ;; Data sizes:     COMMON   BANK0   BANK1   BANK3   BANK2
   851 ;;      Params:         0       0       0       0       0
   852 ;;      Locals:         0       0       0       0       0
   853 ;;      Temps:          0       0       0       0       0
   854 ;;      Totals:         0       0       0       0       0
   855 ;;Total ram usage:        0 bytes
   856 ;; Hardware stack levels used: 1
   857 ;; Hardware stack levels required when called: 1
   858 ;; This function calls:
   859 ;;		Nothing
   860 ;; This function is called by:
   861 ;;		_main
   862 ;; This function uses a non-reentrant model
   863 ;;
   864                           
   865     0F5F                     _setupPWM:	
   866                           ;psect for function _setupPWM
   867                           
   868     0F5F                     l1807:	
   869                           ;incstack = 0
   870                           ; Regs used in _setupPWM: [wreg+status,2+status,0]
   871                           
   872                           
   873                           ;main.c: 214:     TRISCbits.TRISC2 = 1;
   874     0F5F  1683               	bsf	3,5	;RP0=1, select bank1
   875     0F60  1303               	bcf	3,6	;RP1=0, select bank1
   876     0F61  1507               	bsf	7,2	;volatile
   877                           
   878                           ;main.c: 215:     TRISCbits.TRISC1 = 1;
   879     0F62  1487               	bsf	7,1	;volatile
   880     0F63                     l1809:
   881                           
   882                           ;main.c: 217:     PR2 = 255;
   883     0F63  30FF               	movlw	255
   884     0F64  0092               	movwf	18	;volatile
   885     0F65                     l1811:
   886                           
   887                           ;main.c: 219:     CCP1CONbits.P1M = 0b00;
   888     0F65  303F               	movlw	-193
   889     0F66  1283               	bcf	3,5	;RP0=0, select bank0
   890     0F67  1303               	bcf	3,6	;RP1=0, select bank0
   891     0F68  0597               	andwf	23,f	;volatile
   892     0F69                     l1813:
   893                           
   894                           ;main.c: 222:     CCP1CONbits.CCP1M = 0b1100;
   895     0F69  0817               	movf	23,w	;volatile
   896     0F6A  39F0               	andlw	-16
   897     0F6B  380C               	iorlw	12
   898     0F6C  0097               	movwf	23	;volatile
   899     0F6D                     l1815:
   900                           
   901                           ;main.c: 226:     CCP2CONbits.CCP2M = 0b1111;
   902     0F6D  300F               	movlw	15
   903     0F6E  049D               	iorwf	29,f	;volatile
   904     0F6F                     l1817:
   905                           
   906                           ;main.c: 229:     CCP1CONbits.DC1B = 0b11;
   907     0F6F  3030               	movlw	48
   908     0F70  0497               	iorwf	23,f	;volatile
   909                           
   910                           ;main.c: 230:     CCPR1L = 11;
   911     0F71  300B               	movlw	11
   912     0F72  0095               	movwf	21	;volatile
   913     0F73                     l1819:
   914                           
   915                           ;main.c: 233:     CCP2CONbits.DC2B1 = 0b1;
   916     0F73  169D               	bsf	29,5	;volatile
   917     0F74                     l1821:
   918                           
   919                           ;main.c: 234:     CCP2CONbits.DC2B0 = 0b1;
   920     0F74  161D               	bsf	29,4	;volatile
   921                           
   922                           ;main.c: 235:     CCPR2L = 11;
   923     0F75  300B               	movlw	11
   924     0F76  009B               	movwf	27	;volatile
   925     0F77                     l1823:
   926                           
   927                           ;main.c: 238:     PIR1bits.TMR2IF = 0;
   928     0F77  108C               	bcf	12,1	;volatile
   929     0F78                     l1825:
   930                           
   931                           ;main.c: 239:     T2CONbits.T2CKPS = 0b11;
   932     0F78  3003               	movlw	3
   933     0F79  0492               	iorwf	18,f	;volatile
   934     0F7A                     l1827:
   935                           
   936                           ;main.c: 240:     T2CONbits.TMR2ON = 1;
   937     0F7A  1512               	bsf	18,2	;volatile
   938     0F7B                     l120:	
   939                           ;main.c: 244:     }
   940                           
   941                           
   942                           ;main.c: 242:     while(!PIR1bits.TMR2IF){
   943     0F7B  1C8C               	btfss	12,1	;volatile
   944     0F7C  2F7E               	goto	u2301
   945     0F7D  2F7F               	goto	u2300
   946     0F7E                     u2301:
   947     0F7E  2F7B               	goto	l120
   948     0F7F                     u2300:
   949     0F7F                     l122:
   950                           
   951                           ;main.c: 246:     TRISCbits.TRISC2=0;
   952     0F7F  1683               	bsf	3,5	;RP0=1, select bank1
   953     0F80  1303               	bcf	3,6	;RP1=0, select bank1
   954     0F81  1107               	bcf	7,2	;volatile
   955                           
   956                           ;main.c: 247:     TRISCbits.TRISC1=0;
   957     0F82  1087               	bcf	7,1	;volatile
   958     0F83                     l123:
   959     0F83  0008               	return
   960     0F84                     __end_of_setupPWM:
   961                           
   962                           	psect	text2
   963     07E0                     __ptext2:	
   964 ;; *************** function _setupADC *****************
   965 ;; Defined at:
   966 ;;		line 250 in file "main.c"
   967 ;; Parameters:    Size  Location     Type
   968 ;;		None
   969 ;; Auto vars:     Size  Location     Type
   970 ;;		None
   971 ;; Return value:  Size  Location     Type
   972 ;;                  1    wreg      void 
   973 ;; Registers used:
   974 ;;		wreg, status,2, status,0
   975 ;; Tracked objects:
   976 ;;		On entry : 0/0
   977 ;;		On exit  : 0/0
   978 ;;		Unchanged: 0/0
   979 ;; Data sizes:     COMMON   BANK0   BANK1   BANK3   BANK2
   980 ;;      Params:         0       0       0       0       0
   981 ;;      Locals:         0       0       0       0       0
   982 ;;      Temps:          1       0       0       0       0
   983 ;;      Totals:         1       0       0       0       0
   984 ;;Total ram usage:        1 bytes
   985 ;; Hardware stack levels used: 1
   986 ;; Hardware stack levels required when called: 1
   987 ;; This function calls:
   988 ;;		Nothing
   989 ;; This function is called by:
   990 ;;		_main
   991 ;; This function uses a non-reentrant model
   992 ;;
   993                           
   994     07E0                     _setupADC:	
   995                           ;psect for function _setupADC
   996                           
   997     07E0                     l1793:	
   998                           ;incstack = 0
   999                           ; Regs used in _setupADC: [wreg+status,2+status,0]
  1000                           
  1001                           
  1002                           ;main.c: 252:     ADCON0bits.ADCS = 0b01;
  1003     07E0  1283               	bcf	3,5	;RP0=0, select bank0
  1004     07E1  1303               	bcf	3,6	;RP1=0, select bank0
  1005     07E2  081F               	movf	31,w	;volatile
  1006     07E3  393F               	andlw	-193
  1007     07E4  3840               	iorlw	64
  1008     07E5  009F               	movwf	31	;volatile
  1009     07E6                     l1795:
  1010                           
  1011                           ;main.c: 254:     ADCON1bits.VCFG1 = 0;
  1012     07E6  1683               	bsf	3,5	;RP0=1, select bank1
  1013     07E7  1303               	bcf	3,6	;RP1=0, select bank1
  1014     07E8  129F               	bcf	31,5	;volatile
  1015     07E9                     l1797:
  1016                           
  1017                           ;main.c: 255:     ADCON1bits.VCFG0 = 0;
  1018     07E9  121F               	bcf	31,4	;volatile
  1019     07EA                     l1799:
  1020                           
  1021                           ;main.c: 258:     ADCON1bits.ADFM = 0;
  1022     07EA  139F               	bcf	31,7	;volatile
  1023                           
  1024                           ;main.c: 261:     ADCON0bits.CHS = 0b0000;
  1025     07EB  30C3               	movlw	-61
  1026     07EC  1283               	bcf	3,5	;RP0=0, select bank0
  1027     07ED  1303               	bcf	3,6	;RP1=0, select bank0
  1028     07EE  059F               	andwf	31,f	;volatile
  1029     07EF                     l1801:
  1030                           
  1031                           ;main.c: 263:     ADCON0bits.ADON = 1;
  1032     07EF  141F               	bsf	31,0	;volatile
  1033     07F0                     l1803:
  1034                           
  1035                           ;main.c: 265:     PIR1bits.ADIF = 0;
  1036     07F0  130C               	bcf	12,6	;volatile
  1037     07F1                     l1805:
  1038                           
  1039                           ;main.c: 268:     _delay((unsigned long)((100)*(500000/4000000.0)));
  1040     07F1  3003               	movlw	3
  1041     07F2  00F2               	movwf	??_setupADC
  1042     07F3                     u2467:
  1043     07F3  0BF2               	decfsz	??_setupADC,f
  1044     07F4  2FF3               	goto	u2467
  1045     07F5  2FF6               	nop2
  1046     07F6                     l126:
  1047     07F6  0008               	return
  1048     07F7                     __end_of_setupADC:
  1049                           
  1050                           	psect	text3
  1051     07AF                     __ptext3:	
  1052 ;; *************** function _setup *****************
  1053 ;; Defined at:
  1054 ;;		line 165 in file "main.c"
  1055 ;; Parameters:    Size  Location     Type
  1056 ;;		None
  1057 ;; Auto vars:     Size  Location     Type
  1058 ;;		None
  1059 ;; Return value:  Size  Location     Type
  1060 ;;                  1    wreg      void 
  1061 ;; Registers used:
  1062 ;;		wreg, status,2, status,0
  1063 ;; Tracked objects:
  1064 ;;		On entry : 0/0
  1065 ;;		On exit  : 0/0
  1066 ;;		Unchanged: 0/0
  1067 ;; Data sizes:     COMMON   BANK0   BANK1   BANK3   BANK2
  1068 ;;      Params:         0       0       0       0       0
  1069 ;;      Locals:         0       0       0       0       0
  1070 ;;      Temps:          0       0       0       0       0
  1071 ;;      Totals:         0       0       0       0       0
  1072 ;;Total ram usage:        0 bytes
  1073 ;; Hardware stack levels used: 1
  1074 ;; Hardware stack levels required when called: 1
  1075 ;; This function calls:
  1076 ;;		Nothing
  1077 ;; This function is called by:
  1078 ;;		_main
  1079 ;; This function uses a non-reentrant model
  1080 ;;
  1081                           
  1082     07AF                     _setup:	
  1083                           ;psect for function _setup
  1084                           
  1085     07AF                     l1751:	
  1086                           ;incstack = 0
  1087                           ; Regs used in _setup: [wreg+status,2+status,0]
  1088                           
  1089                           
  1090                           ;main.c: 168:     ANSEL = 0b00001111;
  1091     07AF  300F               	movlw	15
  1092     07B0  1683               	bsf	3,5	;RP0=1, select bank3
  1093     07B1  1703               	bsf	3,6	;RP1=1, select bank3
  1094     07B2  0088               	movwf	8	;volatile
  1095     07B3                     l1753:
  1096                           
  1097                           ;main.c: 169:     ANSELH = 0;
  1098     07B3  0189               	clrf	9	;volatile
  1099     07B4                     l1755:
  1100                           
  1101                           ;main.c: 172:     TRISA = 0b00001111;
  1102     07B4  300F               	movlw	15
  1103     07B5  1683               	bsf	3,5	;RP0=1, select bank1
  1104     07B6  1303               	bcf	3,6	;RP1=0, select bank1
  1105     07B7  0085               	movwf	5	;volatile
  1106                           
  1107                           ;main.c: 173:     TRISB = 0b00000000;
  1108     07B8  0186               	clrf	6	;volatile
  1109     07B9                     l1757:
  1110                           
  1111                           ;main.c: 174:     TRISC = 0b00000110;
  1112     07B9  3006               	movlw	6
  1113     07BA  0087               	movwf	7	;volatile
  1114     07BB                     l1759:
  1115                           
  1116                           ;main.c: 175:     TRISD = 0b00000000;
  1117     07BB  0188               	clrf	8	;volatile
  1118                           
  1119                           ;main.c: 176:     TRISE = 0b00000100;
  1120     07BC  3004               	movlw	4
  1121     07BD  0089               	movwf	9	;volatile
  1122     07BE                     l1761:
  1123                           
  1124                           ;main.c: 178:     PORTA = 0b00000000;
  1125     07BE  1283               	bcf	3,5	;RP0=0, select bank0
  1126     07BF  1303               	bcf	3,6	;RP1=0, select bank0
  1127     07C0  0185               	clrf	5	;volatile
  1128     07C1                     l1763:
  1129                           
  1130                           ;main.c: 179:     PORTB = 0b00000000;
  1131     07C1  0186               	clrf	6	;volatile
  1132     07C2                     l1765:
  1133                           
  1134                           ;main.c: 180:     PORTC = 0b00000000;
  1135     07C2  0187               	clrf	7	;volatile
  1136     07C3                     l1767:
  1137                           
  1138                           ;main.c: 181:     PORTD = 0b00000000;
  1139     07C3  0188               	clrf	8	;volatile
  1140     07C4                     l1769:
  1141                           
  1142                           ;main.c: 182:     PORTE = 0b00000000;
  1143     07C4  0189               	clrf	9	;volatile
  1144     07C5                     l1771:
  1145                           
  1146                           ;main.c: 192:     OSCCONbits.IRCF = 0b011;
  1147     07C5  1683               	bsf	3,5	;RP0=1, select bank1
  1148     07C6  1303               	bcf	3,6	;RP1=0, select bank1
  1149     07C7  080F               	movf	15,w	;volatile
  1150     07C8  398F               	andlw	-113
  1151     07C9  3830               	iorlw	48
  1152     07CA  008F               	movwf	15	;volatile
  1153     07CB                     l1773:
  1154                           
  1155                           ;main.c: 193:     OSCCONbits.SCS = 1;
  1156     07CB  140F               	bsf	15,0	;volatile
  1157     07CC                     l1775:
  1158                           
  1159                           ;main.c: 197:     INTCONbits.GIE = 1;
  1160     07CC  178B               	bsf	11,7	;volatile
  1161     07CD                     l1777:
  1162                           
  1163                           ;main.c: 200:     PIE1bits.ADIE = 1;
  1164     07CD  170C               	bsf	12,6	;volatile
  1165     07CE                     l1779:
  1166                           
  1167                           ;main.c: 201:     INTCONbits.TMR0IE = 1;
  1168     07CE  168B               	bsf	11,5	;volatile
  1169     07CF                     l1781:
  1170                           
  1171                           ;main.c: 203:     PIR1bits.ADIF = 0;
  1172     07CF  1283               	bcf	3,5	;RP0=0, select bank0
  1173     07D0  1303               	bcf	3,6	;RP1=0, select bank0
  1174     07D1  130C               	bcf	12,6	;volatile
  1175     07D2                     l1783:
  1176                           
  1177                           ;main.c: 204:     INTCONbits.T0IF = 0;
  1178     07D2  110B               	bcf	11,2	;volatile
  1179     07D3                     l1785:
  1180                           
  1181                           ;main.c: 207:     OPTION_REGbits.T0CS = 0;
  1182     07D3  1683               	bsf	3,5	;RP0=1, select bank1
  1183     07D4  1303               	bcf	3,6	;RP1=0, select bank1
  1184     07D5  1281               	bcf	1,5	;volatile
  1185     07D6                     l1787:
  1186                           
  1187                           ;main.c: 208:     OPTION_REGbits.PSA = 0;
  1188     07D6  1181               	bcf	1,3	;volatile
  1189     07D7                     l1789:
  1190                           
  1191                           ;main.c: 209:     OPTION_REGbits.PS = 0b011;
  1192     07D7  0801               	movf	1,w	;volatile
  1193     07D8  39F8               	andlw	-8
  1194     07D9  3803               	iorlw	3
  1195     07DA  0081               	movwf	1	;volatile
  1196     07DB                     l1791:
  1197                           
  1198                           ;main.c: 210:     TMR0 = 240;
  1199     07DB  30F0               	movlw	240
  1200     07DC  1283               	bcf	3,5	;RP0=0, select bank0
  1201     07DD  1303               	bcf	3,6	;RP1=0, select bank0
  1202     07DE  0081               	movwf	1	;volatile
  1203     07DF                     l117:
  1204     07DF  0008               	return
  1205     07E0                     __end_of_setup:
  1206                           
  1207                           	psect	text4
  1208     0F4A                     __ptext4:	
  1209 ;; *************** function _incModo *****************
  1210 ;; Defined at:
  1211 ;;		line 271 in file "main.c"
  1212 ;; Parameters:    Size  Location     Type
  1213 ;;		None
  1214 ;; Auto vars:     Size  Location     Type
  1215 ;;		None
  1216 ;; Return value:  Size  Location     Type
  1217 ;;                  1    wreg      void 
  1218 ;; Registers used:
  1219 ;;		wreg, status,2, status,0
  1220 ;; Tracked objects:
  1221 ;;		On entry : 0/0
  1222 ;;		On exit  : 0/0
  1223 ;;		Unchanged: 0/0
  1224 ;; Data sizes:     COMMON   BANK0   BANK1   BANK3   BANK2
  1225 ;;      Params:         0       0       0       0       0
  1226 ;;      Locals:         0       0       0       0       0
  1227 ;;      Temps:          0       0       0       0       0
  1228 ;;      Totals:         0       0       0       0       0
  1229 ;;Total ram usage:        0 bytes
  1230 ;; Hardware stack levels used: 1
  1231 ;; Hardware stack levels required when called: 1
  1232 ;; This function calls:
  1233 ;;		Nothing
  1234 ;; This function is called by:
  1235 ;;		_main
  1236 ;; This function uses a non-reentrant model
  1237 ;;
  1238                           
  1239     0F4A                     _incModo:	
  1240                           ;psect for function _incModo
  1241                           
  1242     0F4A                     l1829:	
  1243                           ;incstack = 0
  1244                           ; Regs used in _incModo: [wreg+status,2+status,0]
  1245                           
  1246                           
  1247                           ;main.c: 272:     if (modo != 3){
  1248     0F4A  3003               	movlw	3
  1249     0F4B  1283               	bcf	3,5	;RP0=0, select bank0
  1250     0F4C  1303               	bcf	3,6	;RP1=0, select bank0
  1251     0F4D  0666               	xorwf	_modo,w
  1252     0F4E  0467               	iorwf	_modo+1,w
  1253     0F4F  1903               	btfsc	3,2
  1254     0F50  2F52               	goto	u2311
  1255     0F51  2F53               	goto	u2310
  1256     0F52                     u2311:
  1257     0F52  2F5A               	goto	l1833
  1258     0F53                     u2310:
  1259     0F53                     l1831:
  1260                           
  1261                           ;main.c: 273:         modo ++;
  1262     0F53  3001               	movlw	1
  1263     0F54  07E6               	addwf	_modo,f
  1264     0F55  1803               	skipnc
  1265     0F56  0AE7               	incf	_modo+1,f
  1266     0F57  3000               	movlw	0
  1267     0F58  07E7               	addwf	_modo+1,f
  1268                           
  1269                           ;main.c: 274:     }
  1270     0F59  2F5E               	goto	l131
  1271     0F5A                     l1833:
  1272                           
  1273                           ;main.c: 276:         modo = 1;
  1274     0F5A  3001               	movlw	1
  1275     0F5B  00E6               	movwf	_modo
  1276     0F5C  3000               	movlw	0
  1277     0F5D  00E7               	movwf	_modo+1
  1278     0F5E                     l131:
  1279     0F5E  0008               	return
  1280     0F5F                     __end_of_incModo:
  1281                           
  1282                           	psect	text5
  1283     0FAB                     __ptext5:	
  1284 ;; *************** function _ADC_to_PWM *****************
  1285 ;; Defined at:
  1286 ;;		line 161 in file "main.c"
  1287 ;; Parameters:    Size  Location     Type
  1288 ;;  voltaje         2   62[BANK0 ] int 
  1289 ;; Auto vars:     Size  Location     Type
  1290 ;;		None
  1291 ;; Return value:  Size  Location     Type
  1292 ;;                  1    wreg      void 
  1293 ;; Registers used:
  1294 ;;		wreg, status,2, status,0, btemp+1, pclath, cstack
  1295 ;; Tracked objects:
  1296 ;;		On entry : 0/0
  1297 ;;		On exit  : 0/0
  1298 ;;		Unchanged: 0/0
  1299 ;; Data sizes:     COMMON   BANK0   BANK1   BANK3   BANK2
  1300 ;;      Params:         0       2       0       0       0
  1301 ;;      Locals:         0       0       0       0       0
  1302 ;;      Temps:          0       0       0       0       0
  1303 ;;      Totals:         0       2       0       0       0
  1304 ;;Total ram usage:        2 bytes
  1305 ;; Hardware stack levels used: 1
  1306 ;; Hardware stack levels required when called: 3
  1307 ;; This function calls:
  1308 ;;		___fladd
  1309 ;;		___flmul
  1310 ;;		___fltol
  1311 ;;		___xxtofl
  1312 ;; This function is called by:
  1313 ;;		_main
  1314 ;; This function uses a non-reentrant model
  1315 ;;
  1316                           
  1317     0FAB                     _ADC_to_PWM:	
  1318                           ;psect for function _ADC_to_PWM
  1319                           
  1320     0FAB                     l1835:	
  1321                           ;incstack = 0
  1322                           ; Regs used in _ADC_to_PWM: [wreg+status,2+status,0+btemp+1+pclath+cstack]
  1323                           
  1324                           
  1325                           ;main.c: 162:     equivalent = (unsigned short) (7+( (float)(9)/(255) ) * (voltaje-0));
  1326     0FAB  1283               	bcf	3,5	;RP0=0, select bank0
  1327     0FAC  1303               	bcf	3,6	;RP1=0, select bank0
  1328     0FAD  085E               	movf	ADC_to_PWM@voltaje,w
  1329     0FAE  00F2               	movwf	___xxtofl@val
  1330     0FAF  085F               	movf	ADC_to_PWM@voltaje+1,w
  1331     0FB0  00F3               	movwf	___xxtofl@val+1
  1332     0FB1  3000               	movlw	0
  1333     0FB2  1BF3               	btfsc	___xxtofl@val+1,7
  1334     0FB3  30FF               	movlw	255
  1335     0FB4  00F4               	movwf	___xxtofl@val+2
  1336     0FB5  00F5               	movwf	___xxtofl@val+3
  1337     0FB6  3001               	movlw	1
  1338     0FB7  120A  118A  267D  120A  158A  	fcall	___xxtofl
  1339     0FBC  0875               	movf	?___xxtofl+3,w
  1340     0FBD  1283               	bcf	3,5	;RP0=0, select bank0
  1341     0FBE  1303               	bcf	3,6	;RP1=0, select bank0
  1342     0FBF  00AD               	movwf	___flmul@a+3
  1343     0FC0  0874               	movf	?___xxtofl+2,w
  1344     0FC1  00AC               	movwf	___flmul@a+2
  1345     0FC2  0873               	movf	?___xxtofl+1,w
  1346     0FC3  00AB               	movwf	___flmul@a+1
  1347     0FC4  0872               	movf	?___xxtofl,w
  1348     0FC5  00AA               	movwf	___flmul@a
  1349     0FC6  303D               	movlw	61
  1350     0FC7  00A9               	movwf	___flmul@b+3
  1351     0FC8  3010               	movlw	16
  1352     0FC9  00A8               	movwf	___flmul@b+2
  1353     0FCA  3090               	movlw	144
  1354     0FCB  00A7               	movwf	___flmul@b+1
  1355     0FCC  3091               	movlw	145
  1356     0FCD  00A6               	movwf	___flmul@b
  1357     0FCE  120A  118A  201B  120A  158A  	fcall	___flmul
  1358     0FD3  1283               	bcf	3,5	;RP0=0, select bank0
  1359     0FD4  1303               	bcf	3,6	;RP1=0, select bank0
  1360     0FD5  0829               	movf	?___flmul+3,w
  1361     0FD6  00C7               	movwf	___fladd@a+3
  1362     0FD7  0828               	movf	?___flmul+2,w
  1363     0FD8  00C6               	movwf	___fladd@a+2
  1364     0FD9  0827               	movf	?___flmul+1,w
  1365     0FDA  00C5               	movwf	___fladd@a+1
  1366     0FDB  0826               	movf	?___flmul,w
  1367     0FDC  00C4               	movwf	___fladd@a
  1368     0FDD  3040               	movlw	64
  1369     0FDE  00C3               	movwf	___fladd@b+3
  1370     0FDF  30E0               	movlw	224
  1371     0FE0  00C2               	movwf	___fladd@b+2
  1372     0FE1  3000               	movlw	0
  1373     0FE2  00C1               	movwf	___fladd@b+1
  1374     0FE3  3000               	movlw	0
  1375     0FE4  00C0               	movwf	___fladd@b
  1376     0FE5  120A  118A  2360  120A  158A  	fcall	___fladd
  1377     0FEA  1283               	bcf	3,5	;RP0=0, select bank0
  1378     0FEB  1303               	bcf	3,6	;RP1=0, select bank0
  1379     0FEC  0843               	movf	?___fladd+3,w
  1380     0FED  00D7               	movwf	___fltol@f1+3
  1381     0FEE  0842               	movf	?___fladd+2,w
  1382     0FEF  00D6               	movwf	___fltol@f1+2
  1383     0FF0  0841               	movf	?___fladd+1,w
  1384     0FF1  00D5               	movwf	___fltol@f1+1
  1385     0FF2  0840               	movf	?___fladd,w
  1386     0FF3  00D4               	movwf	___fltol@f1
  1387     0FF4  120A  118A  2737  120A  158A  	fcall	___fltol
  1388     0FF9  1283               	bcf	3,5	;RP0=0, select bank0
  1389     0FFA  1303               	bcf	3,6	;RP1=0, select bank0
  1390     0FFB  0855               	movf	?___fltol+1,w
  1391     0FFC  00E3               	movwf	_equivalent+1
  1392     0FFD  0854               	movf	?___fltol,w
  1393     0FFE  00E2               	movwf	_equivalent
  1394     0FFF                     l114:
  1395     0FFF  0008               	return
  1396     1000                     __end_of_ADC_to_PWM:
  1397                           
  1398                           	psect	text6
  1399     067D                     __ptext6:	
  1400 ;; *************** function ___xxtofl *****************
  1401 ;; Defined at:
  1402 ;;		line 10 in file "C:\Program Files\Microchip\xc8\v2.40\pic\sources\c90\common\xxtofl.c"
  1403 ;; Parameters:    Size  Location     Type
  1404 ;;  sign            1    wreg     unsigned char 
  1405 ;;  val             4    2[COMMON] long 
  1406 ;; Auto vars:     Size  Location     Type
  1407 ;;  sign            1    0[BANK0 ] unsigned char 
  1408 ;;  arg             4    2[BANK0 ] unsigned long 
  1409 ;;  exp             1    1[BANK0 ] unsigned char 
  1410 ;; Return value:  Size  Location     Type
  1411 ;;                  4    2[COMMON] unsigned char 
  1412 ;; Registers used:
  1413 ;;		wreg, status,2, status,0
  1414 ;; Tracked objects:
  1415 ;;		On entry : 0/0
  1416 ;;		On exit  : 0/0
  1417 ;;		Unchanged: 0/0
  1418 ;; Data sizes:     COMMON   BANK0   BANK1   BANK3   BANK2
  1419 ;;      Params:         4       0       0       0       0
  1420 ;;      Locals:         0       6       0       0       0
  1421 ;;      Temps:          4       0       0       0       0
  1422 ;;      Totals:         8       6       0       0       0
  1423 ;;Total ram usage:       14 bytes
  1424 ;; Hardware stack levels used: 1
  1425 ;; Hardware stack levels required when called: 1
  1426 ;; This function calls:
  1427 ;;		Nothing
  1428 ;; This function is called by:
  1429 ;;		_ADC_to_PWM
  1430 ;; This function uses a non-reentrant model
  1431 ;;
  1432                           
  1433     067D                     ___xxtofl:	
  1434                           ;psect for function ___xxtofl
  1435                           
  1436                           
  1437                           ;incstack = 0
  1438                           ; Regs used in ___xxtofl: [wreg+status,2+status,0]
  1439                           ;___xxtofl@sign stored from wreg
  1440     067D  1283               	bcf	3,5	;RP0=0, select bank0
  1441     067E  1303               	bcf	3,6	;RP1=0, select bank0
  1442     067F  00A0               	movwf	___xxtofl@sign
  1443     0680                     l1707:
  1444     0680  0820               	movf	___xxtofl@sign,w
  1445     0681  1903               	btfsc	3,2
  1446     0682  2E84               	goto	u2161
  1447     0683  2E85               	goto	u2160
  1448     0684                     u2161:
  1449     0684  2E99               	goto	l1713
  1450     0685                     u2160:
  1451     0685                     l1709:
  1452     0685  1FF5               	btfss	___xxtofl@val+3,7
  1453     0686  2E88               	goto	u2171
  1454     0687  2E89               	goto	u2170
  1455     0688                     u2171:
  1456     0688  2E99               	goto	l1713
  1457     0689                     u2170:
  1458     0689                     l1711:
  1459     0689  0972               	comf	___xxtofl@val,w
  1460     068A  00A2               	movwf	___xxtofl@arg
  1461     068B  0973               	comf	___xxtofl@val+1,w
  1462     068C  00A3               	movwf	___xxtofl@arg+1
  1463     068D  0974               	comf	___xxtofl@val+2,w
  1464     068E  00A4               	movwf	___xxtofl@arg+2
  1465     068F  0975               	comf	___xxtofl@val+3,w
  1466     0690  00A5               	movwf	___xxtofl@arg+3
  1467     0691  0AA2               	incf	___xxtofl@arg,f
  1468     0692  1903               	skipnz
  1469     0693  0AA3               	incf	___xxtofl@arg+1,f
  1470     0694  1903               	skipnz
  1471     0695  0AA4               	incf	___xxtofl@arg+2,f
  1472     0696  1903               	skipnz
  1473     0697  0AA5               	incf	___xxtofl@arg+3,f
  1474     0698  2EA1               	goto	l650
  1475     0699                     l1713:
  1476     0699  0875               	movf	___xxtofl@val+3,w
  1477     069A  00A5               	movwf	___xxtofl@arg+3
  1478     069B  0874               	movf	___xxtofl@val+2,w
  1479     069C  00A4               	movwf	___xxtofl@arg+2
  1480     069D  0873               	movf	___xxtofl@val+1,w
  1481     069E  00A3               	movwf	___xxtofl@arg+1
  1482     069F  0872               	movf	___xxtofl@val,w
  1483     06A0  00A2               	movwf	___xxtofl@arg
  1484     06A1                     l650:
  1485     06A1  0875               	movf	___xxtofl@val+3,w
  1486     06A2  0474               	iorwf	___xxtofl@val+2,w
  1487     06A3  0473               	iorwf	___xxtofl@val+1,w
  1488     06A4  0472               	iorwf	___xxtofl@val,w
  1489     06A5  1D03               	skipz
  1490     06A6  2EA8               	goto	u2181
  1491     06A7  2EA9               	goto	u2180
  1492     06A8                     u2181:
  1493     06A8  2EB2               	goto	l1719
  1494     06A9                     u2180:
  1495     06A9                     l1715:
  1496     06A9  3000               	movlw	0
  1497     06AA  00F5               	movwf	?___xxtofl+3
  1498     06AB  3000               	movlw	0
  1499     06AC  00F4               	movwf	?___xxtofl+2
  1500     06AD  3000               	movlw	0
  1501     06AE  00F3               	movwf	?___xxtofl+1
  1502     06AF  3000               	movlw	0
  1503     06B0  00F2               	movwf	?___xxtofl
  1504     06B1  2F36               	goto	l652
  1505     06B2                     l1719:
  1506     06B2  3096               	movlw	150
  1507     06B3  00A1               	movwf	___xxtofl@exp
  1508     06B4  2EC2               	goto	l1723
  1509     06B5                     l1721:
  1510     06B5  3001               	movlw	1
  1511     06B6  00F6               	movwf	??___xxtofl
  1512     06B7  0876               	movf	??___xxtofl,w
  1513     06B8  07A1               	addwf	___xxtofl@exp,f
  1514     06B9  3001               	movlw	1
  1515     06BA                     u2195:
  1516     06BA  1003               	clrc
  1517     06BB  0CA5               	rrf	___xxtofl@arg+3,f
  1518     06BC  0CA4               	rrf	___xxtofl@arg+2,f
  1519     06BD  0CA3               	rrf	___xxtofl@arg+1,f
  1520     06BE  0CA2               	rrf	___xxtofl@arg,f
  1521     06BF  3EFF               	addlw	-1
  1522     06C0  1D03               	skipz
  1523     06C1  2EBA               	goto	u2195
  1524     06C2                     l1723:
  1525     06C2  30FE               	movlw	254
  1526     06C3  0525               	andwf	___xxtofl@arg+3,w
  1527     06C4  1D03               	btfss	3,2
  1528     06C5  2EC7               	goto	u2201
  1529     06C6  2EC8               	goto	u2200
  1530     06C7                     u2201:
  1531     06C7  2EB5               	goto	l1721
  1532     06C8                     u2200:
  1533     06C8  2EE4               	goto	l656
  1534     06C9                     l1725:
  1535     06C9  3001               	movlw	1
  1536     06CA  00F6               	movwf	??___xxtofl
  1537     06CB  0876               	movf	??___xxtofl,w
  1538     06CC  07A1               	addwf	___xxtofl@exp,f
  1539     06CD                     l1727:
  1540     06CD  3001               	movlw	1
  1541     06CE  07A2               	addwf	___xxtofl@arg,f
  1542     06CF  3000               	movlw	0
  1543     06D0  1803               	skipnc
  1544     06D1  3001               	movlw	1
  1545     06D2  07A3               	addwf	___xxtofl@arg+1,f
  1546     06D3  3000               	movlw	0
  1547     06D4  1803               	skipnc
  1548     06D5  3001               	movlw	1
  1549     06D6  07A4               	addwf	___xxtofl@arg+2,f
  1550     06D7  3000               	movlw	0
  1551     06D8  1803               	skipnc
  1552     06D9  3001               	movlw	1
  1553     06DA  07A5               	addwf	___xxtofl@arg+3,f
  1554     06DB                     l1729:
  1555     06DB  3001               	movlw	1
  1556     06DC                     u2215:
  1557     06DC  1003               	clrc
  1558     06DD  0CA5               	rrf	___xxtofl@arg+3,f
  1559     06DE  0CA4               	rrf	___xxtofl@arg+2,f
  1560     06DF  0CA3               	rrf	___xxtofl@arg+1,f
  1561     06E0  0CA2               	rrf	___xxtofl@arg,f
  1562     06E1  3EFF               	addlw	-1
  1563     06E2  1D03               	skipz
  1564     06E3  2EDC               	goto	u2215
  1565     06E4                     l656:
  1566     06E4  30FF               	movlw	255
  1567     06E5  0525               	andwf	___xxtofl@arg+3,w
  1568     06E6  1D03               	btfss	3,2
  1569     06E7  2EE9               	goto	u2221
  1570     06E8  2EEA               	goto	u2220
  1571     06E9                     u2221:
  1572     06E9  2EC9               	goto	l1725
  1573     06EA                     u2220:
  1574     06EA  2EF6               	goto	l1733
  1575     06EB                     l1731:
  1576     06EB  3001               	movlw	1
  1577     06EC  02A1               	subwf	___xxtofl@exp,f
  1578     06ED  3001               	movlw	1
  1579     06EE  00F6               	movwf	??___xxtofl
  1580     06EF                     u2235:
  1581     06EF  1003               	clrc
  1582     06F0  0DA2               	rlf	___xxtofl@arg,f
  1583     06F1  0DA3               	rlf	___xxtofl@arg+1,f
  1584     06F2  0DA4               	rlf	___xxtofl@arg+2,f
  1585     06F3  0DA5               	rlf	___xxtofl@arg+3,f
  1586     06F4  0BF6               	decfsz	??___xxtofl,f
  1587     06F5  2EEF               	goto	u2235
  1588     06F6                     l1733:
  1589     06F6  1BA4               	btfsc	___xxtofl@arg+2,7
  1590     06F7  2EF9               	goto	u2241
  1591     06F8  2EFA               	goto	u2240
  1592     06F9                     u2241:
  1593     06F9  2F00               	goto	l663
  1594     06FA                     u2240:
  1595     06FA                     l1735:
  1596     06FA  3002               	movlw	2
  1597     06FB  0221               	subwf	___xxtofl@exp,w
  1598     06FC  1803               	skipnc
  1599     06FD  2EFF               	goto	u2251
  1600     06FE  2F00               	goto	u2250
  1601     06FF                     u2251:
  1602     06FF  2EEB               	goto	l1731
  1603     0700                     u2250:
  1604     0700                     l663:
  1605     0700  1821               	btfsc	___xxtofl@exp,0
  1606     0701  2F03               	goto	u2261
  1607     0702  2F04               	goto	u2260
  1608     0703                     u2261:
  1609     0703  2F0C               	goto	l664
  1610     0704                     u2260:
  1611     0704                     l1737:
  1612     0704  30FF               	movlw	255
  1613     0705  05A2               	andwf	___xxtofl@arg,f
  1614     0706  30FF               	movlw	255
  1615     0707  05A3               	andwf	___xxtofl@arg+1,f
  1616     0708  307F               	movlw	127
  1617     0709  05A4               	andwf	___xxtofl@arg+2,f
  1618     070A  30FF               	movlw	255
  1619     070B  05A5               	andwf	___xxtofl@arg+3,f
  1620     070C                     l664:
  1621     070C  1003               	clrc
  1622     070D  0CA1               	rrf	___xxtofl@exp,f
  1623     070E                     l1739:
  1624     070E  0821               	movf	___xxtofl@exp,w
  1625     070F  00F6               	movwf	??___xxtofl
  1626     0710  01F7               	clrf	??___xxtofl+1
  1627     0711  01F8               	clrf	??___xxtofl+2
  1628     0712  01F9               	clrf	??___xxtofl+3
  1629     0713  3018               	movlw	24
  1630     0714                     u2275:
  1631     0714  1003               	clrc
  1632     0715  0DF6               	rlf	??___xxtofl,f
  1633     0716  0DF7               	rlf	??___xxtofl+1,f
  1634     0717  0DF8               	rlf	??___xxtofl+2,f
  1635     0718  0DF9               	rlf	??___xxtofl+3,f
  1636     0719                     u2270:
  1637     0719  3EFF               	addlw	-1
  1638     071A  1D03               	skipz
  1639     071B  2F14               	goto	u2275
  1640     071C  0876               	movf	??___xxtofl,w
  1641     071D  04A2               	iorwf	___xxtofl@arg,f
  1642     071E  0877               	movf	??___xxtofl+1,w
  1643     071F  04A3               	iorwf	___xxtofl@arg+1,f
  1644     0720  0878               	movf	??___xxtofl+2,w
  1645     0721  04A4               	iorwf	___xxtofl@arg+2,f
  1646     0722  0879               	movf	??___xxtofl+3,w
  1647     0723  04A5               	iorwf	___xxtofl@arg+3,f
  1648     0724                     l1741:
  1649     0724  0820               	movf	___xxtofl@sign,w
  1650     0725  1903               	btfsc	3,2
  1651     0726  2F28               	goto	u2281
  1652     0727  2F29               	goto	u2280
  1653     0728                     u2281:
  1654     0728  2F2E               	goto	l1747
  1655     0729                     u2280:
  1656     0729                     l1743:
  1657     0729  1FF5               	btfss	___xxtofl@val+3,7
  1658     072A  2F2C               	goto	u2291
  1659     072B  2F2D               	goto	u2290
  1660     072C                     u2291:
  1661     072C  2F2E               	goto	l1747
  1662     072D                     u2290:
  1663     072D                     l1745:
  1664     072D  17A5               	bsf	___xxtofl@arg+3,7
  1665     072E                     l1747:
  1666     072E  0825               	movf	___xxtofl@arg+3,w
  1667     072F  00F5               	movwf	?___xxtofl+3
  1668     0730  0824               	movf	___xxtofl@arg+2,w
  1669     0731  00F4               	movwf	?___xxtofl+2
  1670     0732  0823               	movf	___xxtofl@arg+1,w
  1671     0733  00F3               	movwf	?___xxtofl+1
  1672     0734  0822               	movf	___xxtofl@arg,w
  1673     0735  00F2               	movwf	?___xxtofl
  1674     0736                     l652:
  1675     0736  0008               	return
  1676     0737                     __end_of___xxtofl:
  1677                           
  1678                           	psect	text7
  1679     0737                     __ptext7:	
  1680 ;; *************** function ___fltol *****************
  1681 ;; Defined at:
  1682 ;;		line 43 in file "C:\Program Files\Microchip\xc8\v2.40\pic\sources\c90\common\fltol.c"
  1683 ;; Parameters:    Size  Location     Type
  1684 ;;  f1              4   52[BANK0 ] unsigned char 
  1685 ;; Auto vars:     Size  Location     Type
  1686 ;;  exp1            1   61[BANK0 ] unsigned char 
  1687 ;;  sign1           1   60[BANK0 ] unsigned char 
  1688 ;; Return value:  Size  Location     Type
  1689 ;;                  4   52[BANK0 ] long 
  1690 ;; Registers used:
  1691 ;;		wreg, status,2, status,0
  1692 ;; Tracked objects:
  1693 ;;		On entry : 0/0
  1694 ;;		On exit  : 0/0
  1695 ;;		Unchanged: 0/0
  1696 ;; Data sizes:     COMMON   BANK0   BANK1   BANK3   BANK2
  1697 ;;      Params:         0       4       0       0       0
  1698 ;;      Locals:         0       2       0       0       0
  1699 ;;      Temps:          0       4       0       0       0
  1700 ;;      Totals:         0      10       0       0       0
  1701 ;;Total ram usage:       10 bytes
  1702 ;; Hardware stack levels used: 1
  1703 ;; Hardware stack levels required when called: 1
  1704 ;; This function calls:
  1705 ;;		Nothing
  1706 ;; This function is called by:
  1707 ;;		_ADC_to_PWM
  1708 ;; This function uses a non-reentrant model
  1709 ;;
  1710                           
  1711     0737                     ___fltol:	
  1712                           ;psect for function ___fltol
  1713                           
  1714     0737                     l1337:	
  1715                           ;incstack = 0
  1716                           ; Regs used in ___fltol: [wreg+status,2+status,0]
  1717                           
  1718     0737  1003               	clrc
  1719     0738  1283               	bcf	3,5	;RP0=0, select bank0
  1720     0739  1303               	bcf	3,6	;RP1=0, select bank0
  1721     073A  0D56               	rlf	___fltol@f1+2,w
  1722     073B  0D57               	rlf	___fltol@f1+3,w
  1723     073C  00DD               	movwf	___fltol@exp1
  1724     073D  085D               	movf	___fltol@exp1,w
  1725     073E  1D03               	btfss	3,2
  1726     073F  2F41               	goto	u1231
  1727     0740  2F42               	goto	u1230
  1728     0741                     u1231:
  1729     0741  2F4B               	goto	l1343
  1730     0742                     u1230:
  1731     0742                     l1339:
  1732     0742  3000               	movlw	0
  1733     0743  00D7               	movwf	?___fltol+3
  1734     0744  3000               	movlw	0
  1735     0745  00D6               	movwf	?___fltol+2
  1736     0746  3000               	movlw	0
  1737     0747  00D5               	movwf	?___fltol+1
  1738     0748  3000               	movlw	0
  1739     0749  00D4               	movwf	?___fltol
  1740     074A  2FAE               	goto	l403
  1741     074B                     l1343:
  1742     074B  0854               	movf	___fltol@f1,w
  1743     074C  00D8               	movwf	??___fltol
  1744     074D  0855               	movf	___fltol@f1+1,w
  1745     074E  00D9               	movwf	??___fltol+1
  1746     074F  0856               	movf	___fltol@f1+2,w
  1747     0750  00DA               	movwf	??___fltol+2
  1748     0751  0857               	movf	___fltol@f1+3,w
  1749     0752  00DB               	movwf	??___fltol+3
  1750     0753  301F               	movlw	31
  1751     0754                     u1245:
  1752     0754  1003               	clrc
  1753     0755  0CDB               	rrf	??___fltol+3,f
  1754     0756  0CDA               	rrf	??___fltol+2,f
  1755     0757  0CD9               	rrf	??___fltol+1,f
  1756     0758  0CD8               	rrf	??___fltol,f
  1757     0759                     u1240:
  1758     0759  3EFF               	addlw	-1
  1759     075A  1D03               	skipz
  1760     075B  2F54               	goto	u1245
  1761     075C  0858               	movf	??___fltol,w
  1762     075D  00DC               	movwf	___fltol@sign1
  1763     075E                     l1345:
  1764     075E  17D6               	bsf	___fltol@f1+2,7
  1765     075F                     l1347:
  1766     075F  30FF               	movlw	255
  1767     0760  05D4               	andwf	___fltol@f1,f
  1768     0761  30FF               	movlw	255
  1769     0762  05D5               	andwf	___fltol@f1+1,f
  1770     0763  30FF               	movlw	255
  1771     0764  05D6               	andwf	___fltol@f1+2,f
  1772     0765  3000               	movlw	0
  1773     0766  05D7               	andwf	___fltol@f1+3,f
  1774     0767                     l1349:
  1775     0767  3096               	movlw	150
  1776     0768  02DD               	subwf	___fltol@exp1,f
  1777     0769                     l1351:
  1778     0769  1FDD               	btfss	___fltol@exp1,7
  1779     076A  2F6C               	goto	u1251
  1780     076B  2F6D               	goto	u1250
  1781     076C                     u1251:
  1782     076C  2F87               	goto	l1361
  1783     076D                     u1250:
  1784     076D                     l1353:
  1785     076D  085D               	movf	___fltol@exp1,w
  1786     076E  3A80               	xorlw	128
  1787     076F  3E97               	addlw	151
  1788     0770  1803               	skipnc
  1789     0771  2F73               	goto	u1261
  1790     0772  2F74               	goto	u1260
  1791     0773                     u1261:
  1792     0773  2F75               	goto	l1359
  1793     0774                     u1260:
  1794     0774  2F42               	goto	l1339
  1795     0775                     l1359:
  1796     0775  3001               	movlw	1
  1797     0776                     u1275:
  1798     0776  1003               	clrc
  1799     0777  0CD7               	rrf	___fltol@f1+3,f
  1800     0778  0CD6               	rrf	___fltol@f1+2,f
  1801     0779  0CD5               	rrf	___fltol@f1+1,f
  1802     077A  0CD4               	rrf	___fltol@f1,f
  1803     077B  3EFF               	addlw	-1
  1804     077C  1D03               	skipz
  1805     077D  2F76               	goto	u1275
  1806     077E  3001               	movlw	1
  1807     077F  00D8               	movwf	??___fltol
  1808     0780  0858               	movf	??___fltol,w
  1809     0781  07DD               	addwf	___fltol@exp1,f
  1810     0782  1D03               	btfss	3,2
  1811     0783  2F85               	goto	u1281
  1812     0784  2F86               	goto	u1280
  1813     0785                     u1281:
  1814     0785  2F75               	goto	l1359
  1815     0786                     u1280:
  1816     0786  2F9E               	goto	l1369
  1817     0787                     l1361:
  1818     0787  3020               	movlw	32
  1819     0788  025D               	subwf	___fltol@exp1,w
  1820     0789  1C03               	skipc
  1821     078A  2F8C               	goto	u1291
  1822     078B  2F8D               	goto	u1290
  1823     078C                     u1291:
  1824     078C  2F99               	goto	l410
  1825     078D                     u1290:
  1826     078D  2F42               	goto	l1339
  1827     078E                     l1367:
  1828     078E  3001               	movlw	1
  1829     078F  00D8               	movwf	??___fltol
  1830     0790                     u1305:
  1831     0790  1003               	clrc
  1832     0791  0DD4               	rlf	___fltol@f1,f
  1833     0792  0DD5               	rlf	___fltol@f1+1,f
  1834     0793  0DD6               	rlf	___fltol@f1+2,f
  1835     0794  0DD7               	rlf	___fltol@f1+3,f
  1836     0795  0BD8               	decfsz	??___fltol,f
  1837     0796  2F90               	goto	u1305
  1838     0797  3001               	movlw	1
  1839     0798  02DD               	subwf	___fltol@exp1,f
  1840     0799                     l410:
  1841     0799  085D               	movf	___fltol@exp1,w
  1842     079A  1D03               	btfss	3,2
  1843     079B  2F9D               	goto	u1311
  1844     079C  2F9E               	goto	u1310
  1845     079D                     u1311:
  1846     079D  2F8E               	goto	l1367
  1847     079E                     u1310:
  1848     079E                     l1369:
  1849     079E  085C               	movf	___fltol@sign1,w
  1850     079F  1903               	btfsc	3,2
  1851     07A0  2FA2               	goto	u1321
  1852     07A1  2FA3               	goto	u1320
  1853     07A2                     u1321:
  1854     07A2  2FAE               	goto	l413
  1855     07A3                     u1320:
  1856     07A3                     l1371:
  1857     07A3  09D4               	comf	___fltol@f1,f
  1858     07A4  09D5               	comf	___fltol@f1+1,f
  1859     07A5  09D6               	comf	___fltol@f1+2,f
  1860     07A6  09D7               	comf	___fltol@f1+3,f
  1861     07A7  0AD4               	incf	___fltol@f1,f
  1862     07A8  1903               	skipnz
  1863     07A9  0AD5               	incf	___fltol@f1+1,f
  1864     07AA  1903               	skipnz
  1865     07AB  0AD6               	incf	___fltol@f1+2,f
  1866     07AC  1903               	skipnz
  1867     07AD  0AD7               	incf	___fltol@f1+3,f
  1868     07AE                     l413:
  1869     07AE                     l403:
  1870     07AE  0008               	return
  1871     07AF                     __end_of___fltol:
  1872                           
  1873                           	psect	text8
  1874     001B                     __ptext8:	
  1875 ;; *************** function ___flmul *****************
  1876 ;; Defined at:
  1877 ;;		line 8 in file "C:\Program Files\Microchip\xc8\v2.40\pic\sources\c90\common\sprcmul.c"
  1878 ;; Parameters:    Size  Location     Type
  1879 ;;  b               4    6[BANK0 ] long 
  1880 ;;  a               4   10[BANK0 ] long 
  1881 ;; Auto vars:     Size  Location     Type
  1882 ;;  prod            4   26[BANK0 ] struct .
  1883 ;;  grs             4   20[BANK0 ] unsigned long 
  1884 ;;  temp            2   30[BANK0 ] struct .
  1885 ;;  bexp            1   25[BANK0 ] unsigned char 
  1886 ;;  aexp            1   24[BANK0 ] unsigned char 
  1887 ;;  sign            1   19[BANK0 ] unsigned char 
  1888 ;; Return value:  Size  Location     Type
  1889 ;;                  4    6[BANK0 ] unsigned char 
  1890 ;; Registers used:
  1891 ;;		wreg, status,2, status,0, btemp+1, pclath, cstack
  1892 ;; Tracked objects:
  1893 ;;		On entry : 0/0
  1894 ;;		On exit  : 0/0
  1895 ;;		Unchanged: 0/0
  1896 ;; Data sizes:     COMMON   BANK0   BANK1   BANK3   BANK2
  1897 ;;      Params:         0       8       0       0       0
  1898 ;;      Locals:         0      13       0       0       0
  1899 ;;      Temps:          0       5       0       0       0
  1900 ;;      Totals:         0      26       0       0       0
  1901 ;;Total ram usage:       26 bytes
  1902 ;; Hardware stack levels used: 1
  1903 ;; Hardware stack levels required when called: 2
  1904 ;; This function calls:
  1905 ;;		__Umul8_16
  1906 ;; This function is called by:
  1907 ;;		_ADC_to_PWM
  1908 ;; This function uses a non-reentrant model
  1909 ;;
  1910                           
  1911     001B                     ___flmul:	
  1912                           ;psect for function ___flmul
  1913                           
  1914     001B                     l1567:	
  1915                           ;incstack = 0
  1916                           ; Regs used in ___flmul: [wreg+status,2+status,0+btemp+1+pclath+cstack]
  1917                           
  1918     001B  1283               	bcf	3,5	;RP0=0, select bank0
  1919     001C  1303               	bcf	3,6	;RP1=0, select bank0
  1920     001D  0829               	movf	___flmul@b+3,w
  1921     001E  3980               	andlw	128
  1922     001F  00B3               	movwf	___flmul@sign
  1923     0020                     l1569:
  1924     0020  0829               	movf	___flmul@b+3,w
  1925     0021  00AE               	movwf	??___flmul
  1926     0022  072E               	addwf	??___flmul,w
  1927     0023  00B9               	movwf	___flmul@bexp
  1928     0024                     l1571:
  1929     0024  1FA8               	btfss	___flmul@b+2,7
  1930     0025  2827               	goto	u1791
  1931     0026  2828               	goto	u1790
  1932     0027                     u1791:
  1933     0027  2829               	goto	l1575
  1934     0028                     u1790:
  1935     0028                     l1573:
  1936     0028  1439               	bsf	___flmul@bexp,0
  1937     0029                     l1575:
  1938     0029  0839               	movf	___flmul@bexp,w
  1939     002A  1903               	btfsc	3,2
  1940     002B  282D               	goto	u1801
  1941     002C  282E               	goto	u1800
  1942     002D                     u1801:
  1943     002D  283D               	goto	l1583
  1944     002E                     u1800:
  1945     002E                     l1577:
  1946     002E  0A39               	incf	___flmul@bexp,w
  1947     002F  1D03               	btfss	3,2
  1948     0030  2832               	goto	u1811
  1949     0031  2833               	goto	u1810
  1950     0032                     u1811:
  1951     0032  283B               	goto	l1581
  1952     0033                     u1810:
  1953     0033                     l1579:
  1954     0033  3000               	movlw	0
  1955     0034  00A9               	movwf	___flmul@b+3
  1956     0035  3000               	movlw	0
  1957     0036  00A8               	movwf	___flmul@b+2
  1958     0037  3000               	movlw	0
  1959     0038  00A7               	movwf	___flmul@b+1
  1960     0039  3000               	movlw	0
  1961     003A  00A6               	movwf	___flmul@b
  1962     003B                     l1581:
  1963     003B  17A8               	bsf	___flmul@b+2,7
  1964     003C  2845               	goto	l1585
  1965     003D                     l1583:
  1966     003D  3000               	movlw	0
  1967     003E  00A9               	movwf	___flmul@b+3
  1968     003F  3000               	movlw	0
  1969     0040  00A8               	movwf	___flmul@b+2
  1970     0041  3000               	movlw	0
  1971     0042  00A7               	movwf	___flmul@b+1
  1972     0043  3000               	movlw	0
  1973     0044  00A6               	movwf	___flmul@b
  1974     0045                     l1585:
  1975     0045  082D               	movf	___flmul@a+3,w
  1976     0046  3980               	andlw	128
  1977     0047  00AE               	movwf	??___flmul
  1978     0048  082E               	movf	??___flmul,w
  1979     0049  06B3               	xorwf	___flmul@sign,f
  1980     004A                     l1587:
  1981     004A  082D               	movf	___flmul@a+3,w
  1982     004B  00AE               	movwf	??___flmul
  1983     004C  072E               	addwf	??___flmul,w
  1984     004D  00B8               	movwf	___flmul@aexp
  1985     004E                     l1589:
  1986     004E  1FAC               	btfss	___flmul@a+2,7
  1987     004F  2851               	goto	u1821
  1988     0050  2852               	goto	u1820
  1989     0051                     u1821:
  1990     0051  2853               	goto	l1593
  1991     0052                     u1820:
  1992     0052                     l1591:
  1993     0052  1438               	bsf	___flmul@aexp,0
  1994     0053                     l1593:
  1995     0053  0838               	movf	___flmul@aexp,w
  1996     0054  1903               	btfsc	3,2
  1997     0055  2857               	goto	u1831
  1998     0056  2858               	goto	u1830
  1999     0057                     u1831:
  2000     0057  2867               	goto	l1601
  2001     0058                     u1830:
  2002     0058                     l1595:
  2003     0058  0A38               	incf	___flmul@aexp,w
  2004     0059  1D03               	btfss	3,2
  2005     005A  285C               	goto	u1841
  2006     005B  285D               	goto	u1840
  2007     005C                     u1841:
  2008     005C  2865               	goto	l1599
  2009     005D                     u1840:
  2010     005D                     l1597:
  2011     005D  3000               	movlw	0
  2012     005E  00AD               	movwf	___flmul@a+3
  2013     005F  3000               	movlw	0
  2014     0060  00AC               	movwf	___flmul@a+2
  2015     0061  3000               	movlw	0
  2016     0062  00AB               	movwf	___flmul@a+1
  2017     0063  3000               	movlw	0
  2018     0064  00AA               	movwf	___flmul@a
  2019     0065                     l1599:
  2020     0065  17AC               	bsf	___flmul@a+2,7
  2021     0066  286F               	goto	l1603
  2022     0067                     l1601:
  2023     0067  3000               	movlw	0
  2024     0068  00AD               	movwf	___flmul@a+3
  2025     0069  3000               	movlw	0
  2026     006A  00AC               	movwf	___flmul@a+2
  2027     006B  3000               	movlw	0
  2028     006C  00AB               	movwf	___flmul@a+1
  2029     006D  3000               	movlw	0
  2030     006E  00AA               	movwf	___flmul@a
  2031     006F                     l1603:
  2032     006F  0838               	movf	___flmul@aexp,w
  2033     0070  1903               	btfsc	3,2
  2034     0071  2873               	goto	u1851
  2035     0072  2874               	goto	u1850
  2036     0073                     u1851:
  2037     0073  2879               	goto	l1607
  2038     0074                     u1850:
  2039     0074                     l1605:
  2040     0074  0839               	movf	___flmul@bexp,w
  2041     0075  1D03               	btfss	3,2
  2042     0076  2878               	goto	u1861
  2043     0077  2879               	goto	u1860
  2044     0078                     u1861:
  2045     0078  2882               	goto	l1611
  2046     0079                     u1860:
  2047     0079                     l1607:
  2048     0079  3000               	movlw	0
  2049     007A  00A9               	movwf	?___flmul+3
  2050     007B  3000               	movlw	0
  2051     007C  00A8               	movwf	?___flmul+2
  2052     007D  3000               	movlw	0
  2053     007E  00A7               	movwf	?___flmul+1
  2054     007F  3000               	movlw	0
  2055     0080  00A6               	movwf	?___flmul
  2056     0081  2B5F               	goto	l606
  2057     0082                     l1611:
  2058     0082  0826               	movf	___flmul@b,w
  2059     0083  00F2               	movwf	__Umul8_16@multiplicand
  2060     0084  082C               	movf	___flmul@a+2,w
  2061     0085  120A  158A  2784  120A  118A  	fcall	__Umul8_16
  2062     008A  0873               	movf	?__Umul8_16+1,w
  2063     008B  1283               	bcf	3,5	;RP0=0, select bank0
  2064     008C  1303               	bcf	3,6	;RP1=0, select bank0
  2065     008D  00BF               	movwf	___flmul@temp+1
  2066     008E  0872               	movf	?__Umul8_16,w
  2067     008F  00BE               	movwf	___flmul@temp
  2068     0090                     l1613:
  2069     0090  083E               	movf	___flmul@temp,w
  2070     0091  00AE               	movwf	??___flmul
  2071     0092  01AF               	clrf	??___flmul+1
  2072     0093  01B0               	clrf	??___flmul+2
  2073     0094  01B1               	clrf	??___flmul+3
  2074     0095  0831               	movf	??___flmul+3,w
  2075     0096  00B7               	movwf	___flmul@grs+3
  2076     0097  0830               	movf	??___flmul+2,w
  2077     0098  00B6               	movwf	___flmul@grs+2
  2078     0099  082F               	movf	??___flmul+1,w
  2079     009A  00B5               	movwf	___flmul@grs+1
  2080     009B  082E               	movf	??___flmul,w
  2081     009C  00B4               	movwf	___flmul@grs
  2082     009D                     l1615:
  2083     009D  083F               	movf	___flmul@temp+1,w
  2084     009E  00AE               	movwf	??___flmul
  2085     009F  01AF               	clrf	??___flmul+1
  2086     00A0  01B0               	clrf	??___flmul+2
  2087     00A1  01B1               	clrf	??___flmul+3
  2088     00A2  0831               	movf	??___flmul+3,w
  2089     00A3  00BD               	movwf	___flmul@prod+3
  2090     00A4  0830               	movf	??___flmul+2,w
  2091     00A5  00BC               	movwf	___flmul@prod+2
  2092     00A6  082F               	movf	??___flmul+1,w
  2093     00A7  00BB               	movwf	___flmul@prod+1
  2094     00A8  082E               	movf	??___flmul,w
  2095     00A9  00BA               	movwf	___flmul@prod
  2096     00AA  0827               	movf	___flmul@b+1,w
  2097     00AB  00F2               	movwf	__Umul8_16@multiplicand
  2098     00AC  082B               	movf	___flmul@a+1,w
  2099     00AD  120A  158A  2784  120A  118A  	fcall	__Umul8_16
  2100     00B2  0873               	movf	?__Umul8_16+1,w
  2101     00B3  1283               	bcf	3,5	;RP0=0, select bank0
  2102     00B4  1303               	bcf	3,6	;RP1=0, select bank0
  2103     00B5  00BF               	movwf	___flmul@temp+1
  2104     00B6  0872               	movf	?__Umul8_16,w
  2105     00B7  00BE               	movwf	___flmul@temp
  2106     00B8                     l1617:
  2107     00B8  083E               	movf	___flmul@temp,w
  2108     00B9  00AE               	movwf	??___flmul
  2109     00BA  01AF               	clrf	??___flmul+1
  2110     00BB  01B0               	clrf	??___flmul+2
  2111     00BC  01B1               	clrf	??___flmul+3
  2112     00BD  082E               	movf	??___flmul,w
  2113     00BE  07B4               	addwf	___flmul@grs,f
  2114     00BF  082F               	movf	??___flmul+1,w
  2115     00C0  1103               	clrz
  2116     00C1  1803               	skipnc
  2117     00C2  3E01               	addlw	1
  2118     00C3  1903               	skipnz
  2119     00C4  28C6               	goto	u1871
  2120     00C5  07B5               	addwf	___flmul@grs+1,f
  2121     00C6                     u1871:
  2122     00C6  0830               	movf	??___flmul+2,w
  2123     00C7  1103               	clrz
  2124     00C8  1803               	skipnc
  2125     00C9  3E01               	addlw	1
  2126     00CA  1903               	skipnz
  2127     00CB  28CD               	goto	u1872
  2128     00CC  07B6               	addwf	___flmul@grs+2,f
  2129     00CD                     u1872:
  2130     00CD  0831               	movf	??___flmul+3,w
  2131     00CE  1103               	clrz
  2132     00CF  1803               	skipnc
  2133     00D0  3E01               	addlw	1
  2134     00D1  1903               	skipnz
  2135     00D2  28D4               	goto	u1873
  2136     00D3  07B7               	addwf	___flmul@grs+3,f
  2137     00D4                     u1873:
  2138     00D4                     l1619:
  2139     00D4  083F               	movf	___flmul@temp+1,w
  2140     00D5  00AE               	movwf	??___flmul
  2141     00D6  01AF               	clrf	??___flmul+1
  2142     00D7  01B0               	clrf	??___flmul+2
  2143     00D8  01B1               	clrf	??___flmul+3
  2144     00D9  082E               	movf	??___flmul,w
  2145     00DA  07BA               	addwf	___flmul@prod,f
  2146     00DB  082F               	movf	??___flmul+1,w
  2147     00DC  1103               	clrz
  2148     00DD  1803               	skipnc
  2149     00DE  3E01               	addlw	1
  2150     00DF  1903               	skipnz
  2151     00E0  28E2               	goto	u1881
  2152     00E1  07BB               	addwf	___flmul@prod+1,f
  2153     00E2                     u1881:
  2154     00E2  0830               	movf	??___flmul+2,w
  2155     00E3  1103               	clrz
  2156     00E4  1803               	skipnc
  2157     00E5  3E01               	addlw	1
  2158     00E6  1903               	skipnz
  2159     00E7  28E9               	goto	u1882
  2160     00E8  07BC               	addwf	___flmul@prod+2,f
  2161     00E9                     u1882:
  2162     00E9  0831               	movf	??___flmul+3,w
  2163     00EA  1103               	clrz
  2164     00EB  1803               	skipnc
  2165     00EC  3E01               	addlw	1
  2166     00ED  1903               	skipnz
  2167     00EE  28F0               	goto	u1883
  2168     00EF  07BD               	addwf	___flmul@prod+3,f
  2169     00F0                     u1883:
  2170     00F0  0828               	movf	___flmul@b+2,w
  2171     00F1  00F2               	movwf	__Umul8_16@multiplicand
  2172     00F2  082A               	movf	___flmul@a,w
  2173     00F3  120A  158A  2784  120A  118A  	fcall	__Umul8_16
  2174     00F8  0873               	movf	?__Umul8_16+1,w
  2175     00F9  1283               	bcf	3,5	;RP0=0, select bank0
  2176     00FA  1303               	bcf	3,6	;RP1=0, select bank0
  2177     00FB  00BF               	movwf	___flmul@temp+1
  2178     00FC  0872               	movf	?__Umul8_16,w
  2179     00FD  00BE               	movwf	___flmul@temp
  2180     00FE                     l1621:
  2181     00FE  083E               	movf	___flmul@temp,w
  2182     00FF  00AE               	movwf	??___flmul
  2183     0100  01AF               	clrf	??___flmul+1
  2184     0101  01B0               	clrf	??___flmul+2
  2185     0102  01B1               	clrf	??___flmul+3
  2186     0103  082E               	movf	??___flmul,w
  2187     0104  07B4               	addwf	___flmul@grs,f
  2188     0105  082F               	movf	??___flmul+1,w
  2189     0106  1103               	clrz
  2190     0107  1803               	skipnc
  2191     0108  3E01               	addlw	1
  2192     0109  1903               	skipnz
  2193     010A  290C               	goto	u1891
  2194     010B  07B5               	addwf	___flmul@grs+1,f
  2195     010C                     u1891:
  2196     010C  0830               	movf	??___flmul+2,w
  2197     010D  1103               	clrz
  2198     010E  1803               	skipnc
  2199     010F  3E01               	addlw	1
  2200     0110  1903               	skipnz
  2201     0111  2913               	goto	u1892
  2202     0112  07B6               	addwf	___flmul@grs+2,f
  2203     0113                     u1892:
  2204     0113  0831               	movf	??___flmul+3,w
  2205     0114  1103               	clrz
  2206     0115  1803               	skipnc
  2207     0116  3E01               	addlw	1
  2208     0117  1903               	skipnz
  2209     0118  291A               	goto	u1893
  2210     0119  07B7               	addwf	___flmul@grs+3,f
  2211     011A                     u1893:
  2212     011A                     l1623:
  2213     011A  083F               	movf	___flmul@temp+1,w
  2214     011B  00AE               	movwf	??___flmul
  2215     011C  01AF               	clrf	??___flmul+1
  2216     011D  01B0               	clrf	??___flmul+2
  2217     011E  01B1               	clrf	??___flmul+3
  2218     011F  082E               	movf	??___flmul,w
  2219     0120  07BA               	addwf	___flmul@prod,f
  2220     0121  082F               	movf	??___flmul+1,w
  2221     0122  1103               	clrz
  2222     0123  1803               	skipnc
  2223     0124  3E01               	addlw	1
  2224     0125  1903               	skipnz
  2225     0126  2928               	goto	u1901
  2226     0127  07BB               	addwf	___flmul@prod+1,f
  2227     0128                     u1901:
  2228     0128  0830               	movf	??___flmul+2,w
  2229     0129  1103               	clrz
  2230     012A  1803               	skipnc
  2231     012B  3E01               	addlw	1
  2232     012C  1903               	skipnz
  2233     012D  292F               	goto	u1902
  2234     012E  07BC               	addwf	___flmul@prod+2,f
  2235     012F                     u1902:
  2236     012F  0831               	movf	??___flmul+3,w
  2237     0130  1103               	clrz
  2238     0131  1803               	skipnc
  2239     0132  3E01               	addlw	1
  2240     0133  1903               	skipnz
  2241     0134  2936               	goto	u1903
  2242     0135  07BD               	addwf	___flmul@prod+3,f
  2243     0136                     u1903:
  2244     0136                     l1625:
  2245     0136  3008               	movlw	8
  2246     0137  00AE               	movwf	??___flmul
  2247     0138                     u1915:
  2248     0138  1003               	clrc
  2249     0139  0DB4               	rlf	___flmul@grs,f
  2250     013A  0DB5               	rlf	___flmul@grs+1,f
  2251     013B  0DB6               	rlf	___flmul@grs+2,f
  2252     013C  0DB7               	rlf	___flmul@grs+3,f
  2253     013D  0BAE               	decfsz	??___flmul,f
  2254     013E  2938               	goto	u1915
  2255     013F                     l1627:
  2256     013F  0827               	movf	___flmul@b+1,w
  2257     0140  00F2               	movwf	__Umul8_16@multiplicand
  2258     0141  082A               	movf	___flmul@a,w
  2259     0142  120A  158A  2784  120A  118A  	fcall	__Umul8_16
  2260     0147  0873               	movf	?__Umul8_16+1,w
  2261     0148  1283               	bcf	3,5	;RP0=0, select bank0
  2262     0149  1303               	bcf	3,6	;RP1=0, select bank0
  2263     014A  00BF               	movwf	___flmul@temp+1
  2264     014B  0872               	movf	?__Umul8_16,w
  2265     014C  00BE               	movwf	___flmul@temp
  2266     014D                     l1629:
  2267     014D  083E               	movf	___flmul@temp,w
  2268     014E  00AE               	movwf	??___flmul
  2269     014F  083F               	movf	___flmul@temp+1,w
  2270     0150  00AF               	movwf	??___flmul+1
  2271     0151  01B0               	clrf	??___flmul+2
  2272     0152  01B1               	clrf	??___flmul+3
  2273     0153  082E               	movf	??___flmul,w
  2274     0154  07B4               	addwf	___flmul@grs,f
  2275     0155  082F               	movf	??___flmul+1,w
  2276     0156  1103               	clrz
  2277     0157  1803               	skipnc
  2278     0158  3E01               	addlw	1
  2279     0159  1903               	skipnz
  2280     015A  295C               	goto	u1921
  2281     015B  07B5               	addwf	___flmul@grs+1,f
  2282     015C                     u1921:
  2283     015C  0830               	movf	??___flmul+2,w
  2284     015D  1103               	clrz
  2285     015E  1803               	skipnc
  2286     015F  3E01               	addlw	1
  2287     0160  1903               	skipnz
  2288     0161  2963               	goto	u1922
  2289     0162  07B6               	addwf	___flmul@grs+2,f
  2290     0163                     u1922:
  2291     0163  0831               	movf	??___flmul+3,w
  2292     0164  1103               	clrz
  2293     0165  1803               	skipnc
  2294     0166  3E01               	addlw	1
  2295     0167  1903               	skipnz
  2296     0168  296A               	goto	u1923
  2297     0169  07B7               	addwf	___flmul@grs+3,f
  2298     016A                     u1923:
  2299     016A                     l1631:
  2300     016A  0826               	movf	___flmul@b,w
  2301     016B  00F2               	movwf	__Umul8_16@multiplicand
  2302     016C  082B               	movf	___flmul@a+1,w
  2303     016D  120A  158A  2784  120A  118A  	fcall	__Umul8_16
  2304     0172  0873               	movf	?__Umul8_16+1,w
  2305     0173  1283               	bcf	3,5	;RP0=0, select bank0
  2306     0174  1303               	bcf	3,6	;RP1=0, select bank0
  2307     0175  00BF               	movwf	___flmul@temp+1
  2308     0176  0872               	movf	?__Umul8_16,w
  2309     0177  00BE               	movwf	___flmul@temp
  2310     0178                     l1633:
  2311     0178  083E               	movf	___flmul@temp,w
  2312     0179  00AE               	movwf	??___flmul
  2313     017A  083F               	movf	___flmul@temp+1,w
  2314     017B  00AF               	movwf	??___flmul+1
  2315     017C  01B0               	clrf	??___flmul+2
  2316     017D  01B1               	clrf	??___flmul+3
  2317     017E  082E               	movf	??___flmul,w
  2318     017F  07B4               	addwf	___flmul@grs,f
  2319     0180  082F               	movf	??___flmul+1,w
  2320     0181  1103               	clrz
  2321     0182  1803               	skipnc
  2322     0183  3E01               	addlw	1
  2323     0184  1903               	skipnz
  2324     0185  2987               	goto	u1931
  2325     0186  07B5               	addwf	___flmul@grs+1,f
  2326     0187                     u1931:
  2327     0187  0830               	movf	??___flmul+2,w
  2328     0188  1103               	clrz
  2329     0189  1803               	skipnc
  2330     018A  3E01               	addlw	1
  2331     018B  1903               	skipnz
  2332     018C  298E               	goto	u1932
  2333     018D  07B6               	addwf	___flmul@grs+2,f
  2334     018E                     u1932:
  2335     018E  0831               	movf	??___flmul+3,w
  2336     018F  1103               	clrz
  2337     0190  1803               	skipnc
  2338     0191  3E01               	addlw	1
  2339     0192  1903               	skipnz
  2340     0193  2995               	goto	u1933
  2341     0194  07B7               	addwf	___flmul@grs+3,f
  2342     0195                     u1933:
  2343     0195                     l1635:
  2344     0195  3008               	movlw	8
  2345     0196  00AE               	movwf	??___flmul
  2346     0197                     u1945:
  2347     0197  1003               	clrc
  2348     0198  0DB4               	rlf	___flmul@grs,f
  2349     0199  0DB5               	rlf	___flmul@grs+1,f
  2350     019A  0DB6               	rlf	___flmul@grs+2,f
  2351     019B  0DB7               	rlf	___flmul@grs+3,f
  2352     019C  0BAE               	decfsz	??___flmul,f
  2353     019D  2997               	goto	u1945
  2354     019E  0826               	movf	___flmul@b,w
  2355     019F  00F2               	movwf	__Umul8_16@multiplicand
  2356     01A0  082A               	movf	___flmul@a,w
  2357     01A1  120A  158A  2784  120A  118A  	fcall	__Umul8_16
  2358     01A6  0873               	movf	?__Umul8_16+1,w
  2359     01A7  1283               	bcf	3,5	;RP0=0, select bank0
  2360     01A8  1303               	bcf	3,6	;RP1=0, select bank0
  2361     01A9  00BF               	movwf	___flmul@temp+1
  2362     01AA  0872               	movf	?__Umul8_16,w
  2363     01AB  00BE               	movwf	___flmul@temp
  2364     01AC                     l1637:
  2365     01AC  083E               	movf	___flmul@temp,w
  2366     01AD  00AE               	movwf	??___flmul
  2367     01AE  083F               	movf	___flmul@temp+1,w
  2368     01AF  00AF               	movwf	??___flmul+1
  2369     01B0  01B0               	clrf	??___flmul+2
  2370     01B1  01B1               	clrf	??___flmul+3
  2371     01B2  082E               	movf	??___flmul,w
  2372     01B3  07B4               	addwf	___flmul@grs,f
  2373     01B4  082F               	movf	??___flmul+1,w
  2374     01B5  1103               	clrz
  2375     01B6  1803               	skipnc
  2376     01B7  3E01               	addlw	1
  2377     01B8  1903               	skipnz
  2378     01B9  29BB               	goto	u1951
  2379     01BA  07B5               	addwf	___flmul@grs+1,f
  2380     01BB                     u1951:
  2381     01BB  0830               	movf	??___flmul+2,w
  2382     01BC  1103               	clrz
  2383     01BD  1803               	skipnc
  2384     01BE  3E01               	addlw	1
  2385     01BF  1903               	skipnz
  2386     01C0  29C2               	goto	u1952
  2387     01C1  07B6               	addwf	___flmul@grs+2,f
  2388     01C2                     u1952:
  2389     01C2  0831               	movf	??___flmul+3,w
  2390     01C3  1103               	clrz
  2391     01C4  1803               	skipnc
  2392     01C5  3E01               	addlw	1
  2393     01C6  1903               	skipnz
  2394     01C7  29C9               	goto	u1953
  2395     01C8  07B7               	addwf	___flmul@grs+3,f
  2396     01C9                     u1953:
  2397     01C9                     l1639:
  2398     01C9  0827               	movf	___flmul@b+1,w
  2399     01CA  00F2               	movwf	__Umul8_16@multiplicand
  2400     01CB  082C               	movf	___flmul@a+2,w
  2401     01CC  120A  158A  2784  120A  118A  	fcall	__Umul8_16
  2402     01D1  0873               	movf	?__Umul8_16+1,w
  2403     01D2  1283               	bcf	3,5	;RP0=0, select bank0
  2404     01D3  1303               	bcf	3,6	;RP1=0, select bank0
  2405     01D4  00BF               	movwf	___flmul@temp+1
  2406     01D5  0872               	movf	?__Umul8_16,w
  2407     01D6  00BE               	movwf	___flmul@temp
  2408     01D7  083E               	movf	___flmul@temp,w
  2409     01D8  00AE               	movwf	??___flmul
  2410     01D9  083F               	movf	___flmul@temp+1,w
  2411     01DA  00AF               	movwf	??___flmul+1
  2412     01DB  01B0               	clrf	??___flmul+2
  2413     01DC  01B1               	clrf	??___flmul+3
  2414     01DD  082E               	movf	??___flmul,w
  2415     01DE  07BA               	addwf	___flmul@prod,f
  2416     01DF  082F               	movf	??___flmul+1,w
  2417     01E0  1103               	clrz
  2418     01E1  1803               	skipnc
  2419     01E2  3E01               	addlw	1
  2420     01E3  1903               	skipnz
  2421     01E4  29E6               	goto	u1961
  2422     01E5  07BB               	addwf	___flmul@prod+1,f
  2423     01E6                     u1961:
  2424     01E6  0830               	movf	??___flmul+2,w
  2425     01E7  1103               	clrz
  2426     01E8  1803               	skipnc
  2427     01E9  3E01               	addlw	1
  2428     01EA  1903               	skipnz
  2429     01EB  29ED               	goto	u1962
  2430     01EC  07BC               	addwf	___flmul@prod+2,f
  2431     01ED                     u1962:
  2432     01ED  0831               	movf	??___flmul+3,w
  2433     01EE  1103               	clrz
  2434     01EF  1803               	skipnc
  2435     01F0  3E01               	addlw	1
  2436     01F1  1903               	skipnz
  2437     01F2  29F4               	goto	u1963
  2438     01F3  07BD               	addwf	___flmul@prod+3,f
  2439     01F4                     u1963:
  2440     01F4                     l1641:
  2441     01F4  0828               	movf	___flmul@b+2,w
  2442     01F5  00F2               	movwf	__Umul8_16@multiplicand
  2443     01F6  082B               	movf	___flmul@a+1,w
  2444     01F7  120A  158A  2784  120A  118A  	fcall	__Umul8_16
  2445     01FC  0873               	movf	?__Umul8_16+1,w
  2446     01FD  1283               	bcf	3,5	;RP0=0, select bank0
  2447     01FE  1303               	bcf	3,6	;RP1=0, select bank0
  2448     01FF  00BF               	movwf	___flmul@temp+1
  2449     0200  0872               	movf	?__Umul8_16,w
  2450     0201  00BE               	movwf	___flmul@temp
  2451     0202                     l1643:
  2452     0202  083E               	movf	___flmul@temp,w
  2453     0203  00AE               	movwf	??___flmul
  2454     0204  083F               	movf	___flmul@temp+1,w
  2455     0205  00AF               	movwf	??___flmul+1
  2456     0206  01B0               	clrf	??___flmul+2
  2457     0207  01B1               	clrf	??___flmul+3
  2458     0208  082E               	movf	??___flmul,w
  2459     0209  07BA               	addwf	___flmul@prod,f
  2460     020A  082F               	movf	??___flmul+1,w
  2461     020B  1103               	clrz
  2462     020C  1803               	skipnc
  2463     020D  3E01               	addlw	1
  2464     020E  1903               	skipnz
  2465     020F  2A11               	goto	u1971
  2466     0210  07BB               	addwf	___flmul@prod+1,f
  2467     0211                     u1971:
  2468     0211  0830               	movf	??___flmul+2,w
  2469     0212  1103               	clrz
  2470     0213  1803               	skipnc
  2471     0214  3E01               	addlw	1
  2472     0215  1903               	skipnz
  2473     0216  2A18               	goto	u1972
  2474     0217  07BC               	addwf	___flmul@prod+2,f
  2475     0218                     u1972:
  2476     0218  0831               	movf	??___flmul+3,w
  2477     0219  1103               	clrz
  2478     021A  1803               	skipnc
  2479     021B  3E01               	addlw	1
  2480     021C  1903               	skipnz
  2481     021D  2A1F               	goto	u1973
  2482     021E  07BD               	addwf	___flmul@prod+3,f
  2483     021F                     u1973:
  2484     021F  0828               	movf	___flmul@b+2,w
  2485     0220  00F2               	movwf	__Umul8_16@multiplicand
  2486     0221  082C               	movf	___flmul@a+2,w
  2487     0222  120A  158A  2784  120A  118A  	fcall	__Umul8_16
  2488     0227  0873               	movf	?__Umul8_16+1,w
  2489     0228  1283               	bcf	3,5	;RP0=0, select bank0
  2490     0229  1303               	bcf	3,6	;RP1=0, select bank0
  2491     022A  00BF               	movwf	___flmul@temp+1
  2492     022B  0872               	movf	?__Umul8_16,w
  2493     022C  00BE               	movwf	___flmul@temp
  2494     022D                     l1645:
  2495     022D  083E               	movf	___flmul@temp,w
  2496     022E  00AE               	movwf	??___flmul
  2497     022F  083F               	movf	___flmul@temp+1,w
  2498     0230  00AF               	movwf	??___flmul+1
  2499     0231  01B0               	clrf	??___flmul+2
  2500     0232  01B1               	clrf	??___flmul+3
  2501     0233  3008               	movlw	8
  2502     0234                     u1985:
  2503     0234  1003               	clrc
  2504     0235  0DAE               	rlf	??___flmul,f
  2505     0236  0DAF               	rlf	??___flmul+1,f
  2506     0237  0DB0               	rlf	??___flmul+2,f
  2507     0238  0DB1               	rlf	??___flmul+3,f
  2508     0239                     u1980:
  2509     0239  3EFF               	addlw	-1
  2510     023A  1D03               	skipz
  2511     023B  2A34               	goto	u1985
  2512     023C  082E               	movf	??___flmul,w
  2513     023D  07BA               	addwf	___flmul@prod,f
  2514     023E  082F               	movf	??___flmul+1,w
  2515     023F  1103               	clrz
  2516     0240  1803               	skipnc
  2517     0241  3E01               	addlw	1
  2518     0242  1903               	skipnz
  2519     0243  2A45               	goto	u1991
  2520     0244  07BB               	addwf	___flmul@prod+1,f
  2521     0245                     u1991:
  2522     0245  0830               	movf	??___flmul+2,w
  2523     0246  1103               	clrz
  2524     0247  1803               	skipnc
  2525     0248  3E01               	addlw	1
  2526     0249  1903               	skipnz
  2527     024A  2A4C               	goto	u1992
  2528     024B  07BC               	addwf	___flmul@prod+2,f
  2529     024C                     u1992:
  2530     024C  0831               	movf	??___flmul+3,w
  2531     024D  1103               	clrz
  2532     024E  1803               	skipnc
  2533     024F  3E01               	addlw	1
  2534     0250  1903               	skipnz
  2535     0251  2A53               	goto	u1993
  2536     0252  07BD               	addwf	___flmul@prod+3,f
  2537     0253                     u1993:
  2538     0253                     l1647:
  2539     0253  0834               	movf	___flmul@grs,w
  2540     0254  00AE               	movwf	??___flmul
  2541     0255  0835               	movf	___flmul@grs+1,w
  2542     0256  00AF               	movwf	??___flmul+1
  2543     0257  0836               	movf	___flmul@grs+2,w
  2544     0258  00B0               	movwf	??___flmul+2
  2545     0259  0837               	movf	___flmul@grs+3,w
  2546     025A  00B1               	movwf	??___flmul+3
  2547     025B  3018               	movlw	24
  2548     025C                     u2005:
  2549     025C  1003               	clrc
  2550     025D  0CB1               	rrf	??___flmul+3,f
  2551     025E  0CB0               	rrf	??___flmul+2,f
  2552     025F  0CAF               	rrf	??___flmul+1,f
  2553     0260  0CAE               	rrf	??___flmul,f
  2554     0261                     u2000:
  2555     0261  3EFF               	addlw	-1
  2556     0262  1D03               	skipz
  2557     0263  2A5C               	goto	u2005
  2558     0264  082E               	movf	??___flmul,w
  2559     0265  07BA               	addwf	___flmul@prod,f
  2560     0266  082F               	movf	??___flmul+1,w
  2561     0267  1103               	clrz
  2562     0268  1803               	skipnc
  2563     0269  3E01               	addlw	1
  2564     026A  1903               	skipnz
  2565     026B  2A6D               	goto	u2011
  2566     026C  07BB               	addwf	___flmul@prod+1,f
  2567     026D                     u2011:
  2568     026D  0830               	movf	??___flmul+2,w
  2569     026E  1103               	clrz
  2570     026F  1803               	skipnc
  2571     0270  3E01               	addlw	1
  2572     0271  1903               	skipnz
  2573     0272  2A74               	goto	u2012
  2574     0273  07BC               	addwf	___flmul@prod+2,f
  2575     0274                     u2012:
  2576     0274  0831               	movf	??___flmul+3,w
  2577     0275  1103               	clrz
  2578     0276  1803               	skipnc
  2579     0277  3E01               	addlw	1
  2580     0278  1903               	skipnz
  2581     0279  2A7B               	goto	u2013
  2582     027A  07BD               	addwf	___flmul@prod+3,f
  2583     027B                     u2013:
  2584     027B                     l1649:
  2585     027B  3008               	movlw	8
  2586     027C  00AE               	movwf	??___flmul
  2587     027D                     u2025:
  2588     027D  1003               	clrc
  2589     027E  0DB4               	rlf	___flmul@grs,f
  2590     027F  0DB5               	rlf	___flmul@grs+1,f
  2591     0280  0DB6               	rlf	___flmul@grs+2,f
  2592     0281  0DB7               	rlf	___flmul@grs+3,f
  2593     0282  0BAE               	decfsz	??___flmul,f
  2594     0283  2A7D               	goto	u2025
  2595     0284                     l1651:
  2596     0284  0839               	movf	___flmul@bexp,w
  2597     0285  0738               	addwf	___flmul@aexp,w
  2598     0286  00AE               	movwf	??___flmul
  2599     0287  01AF               	clrf	??___flmul+1
  2600     0288  0DAF               	rlf	??___flmul+1,f
  2601     0289  082E               	movf	??___flmul,w
  2602     028A  3E82               	addlw	130
  2603     028B  00BE               	movwf	___flmul@temp
  2604     028C  082F               	movf	??___flmul+1,w
  2605     028D  1803               	skipnc
  2606     028E  3E01               	addlw	1
  2607     028F  3EFF               	addlw	255
  2608     0290  00BF               	movwf	___flmul@temp+1
  2609     0291  2AAF               	goto	l1663
  2610     0292                     l1653:
  2611     0292  3001               	movlw	1
  2612     0293  00AE               	movwf	??___flmul
  2613     0294                     u2035:
  2614     0294  1003               	clrc
  2615     0295  0DBA               	rlf	___flmul@prod,f
  2616     0296  0DBB               	rlf	___flmul@prod+1,f
  2617     0297  0DBC               	rlf	___flmul@prod+2,f
  2618     0298  0DBD               	rlf	___flmul@prod+3,f
  2619     0299  0BAE               	decfsz	??___flmul,f
  2620     029A  2A94               	goto	u2035
  2621     029B                     l1655:
  2622     029B  1FB7               	btfss	___flmul@grs+3,7
  2623     029C  2A9E               	goto	u2041
  2624     029D  2A9F               	goto	u2040
  2625     029E                     u2041:
  2626     029E  2AA0               	goto	l1659
  2627     029F                     u2040:
  2628     029F                     l1657:
  2629     029F  143A               	bsf	___flmul@prod,0
  2630     02A0                     l1659:
  2631     02A0  3001               	movlw	1
  2632     02A1  00AE               	movwf	??___flmul
  2633     02A2                     u2055:
  2634     02A2  1003               	clrc
  2635     02A3  0DB4               	rlf	___flmul@grs,f
  2636     02A4  0DB5               	rlf	___flmul@grs+1,f
  2637     02A5  0DB6               	rlf	___flmul@grs+2,f
  2638     02A6  0DB7               	rlf	___flmul@grs+3,f
  2639     02A7  0BAE               	decfsz	??___flmul,f
  2640     02A8  2AA2               	goto	u2055
  2641     02A9                     l1661:
  2642     02A9  30FF               	movlw	255
  2643     02AA  07BE               	addwf	___flmul@temp,f
  2644     02AB  1803               	skipnc
  2645     02AC  0ABF               	incf	___flmul@temp+1,f
  2646     02AD  30FF               	movlw	255
  2647     02AE  07BF               	addwf	___flmul@temp+1,f
  2648     02AF                     l1663:
  2649     02AF  1FBC               	btfss	___flmul@prod+2,7
  2650     02B0  2AB2               	goto	u2061
  2651     02B1  2AB3               	goto	u2060
  2652     02B2                     u2061:
  2653     02B2  2A92               	goto	l1653
  2654     02B3                     u2060:
  2655     02B3                     l1665:
  2656     02B3  01B8               	clrf	___flmul@aexp
  2657     02B4                     l1667:
  2658     02B4  1FB7               	btfss	___flmul@grs+3,7
  2659     02B5  2AB7               	goto	u2071
  2660     02B6  2AB8               	goto	u2070
  2661     02B7                     u2071:
  2662     02B7  2AD4               	goto	l1675
  2663     02B8                     u2070:
  2664     02B8                     l1669:
  2665     02B8  30FF               	movlw	255
  2666     02B9  0534               	andwf	___flmul@grs,w
  2667     02BA  00AE               	movwf	??___flmul
  2668     02BB  30FF               	movlw	255
  2669     02BC  0535               	andwf	___flmul@grs+1,w
  2670     02BD  00AF               	movwf	??___flmul+1
  2671     02BE  30FF               	movlw	255
  2672     02BF  0536               	andwf	___flmul@grs+2,w
  2673     02C0  00B0               	movwf	??___flmul+2
  2674     02C1  307F               	movlw	127
  2675     02C2  0537               	andwf	___flmul@grs+3,w
  2676     02C3  00B1               	movwf	??___flmul+3
  2677     02C4  0831               	movf	??___flmul+3,w
  2678     02C5  0430               	iorwf	??___flmul+2,w
  2679     02C6  042F               	iorwf	??___flmul+1,w
  2680     02C7  042E               	iorwf	??___flmul,w
  2681     02C8  1903               	skipnz
  2682     02C9  2ACB               	goto	u2081
  2683     02CA  2ACC               	goto	u2080
  2684     02CB                     u2081:
  2685     02CB  2ACF               	goto	l612
  2686     02CC                     u2080:
  2687     02CC                     l1671:
  2688     02CC  01B8               	clrf	___flmul@aexp
  2689     02CD  0AB8               	incf	___flmul@aexp,f
  2690     02CE  2AD4               	goto	l1675
  2691     02CF                     l612:
  2692     02CF  1C3A               	btfss	___flmul@prod,0
  2693     02D0  2AD2               	goto	u2091
  2694     02D1  2AD3               	goto	u2090
  2695     02D2                     u2091:
  2696     02D2  2AD4               	goto	l1675
  2697     02D3                     u2090:
  2698     02D3  2ACC               	goto	l1671
  2699     02D4                     l1675:
  2700     02D4  0838               	movf	___flmul@aexp,w
  2701     02D5  1903               	btfsc	3,2
  2702     02D6  2AD8               	goto	u2101
  2703     02D7  2AD9               	goto	u2100
  2704     02D8                     u2101:
  2705     02D8  2B0A               	goto	l1685
  2706     02D9                     u2100:
  2707     02D9                     l1677:
  2708     02D9  3001               	movlw	1
  2709     02DA  07BA               	addwf	___flmul@prod,f
  2710     02DB  3000               	movlw	0
  2711     02DC  1803               	skipnc
  2712     02DD  3001               	movlw	1
  2713     02DE  07BB               	addwf	___flmul@prod+1,f
  2714     02DF  3000               	movlw	0
  2715     02E0  1803               	skipnc
  2716     02E1  3001               	movlw	1
  2717     02E2  07BC               	addwf	___flmul@prod+2,f
  2718     02E3  3000               	movlw	0
  2719     02E4  1803               	skipnc
  2720     02E5  3001               	movlw	1
  2721     02E6  07BD               	addwf	___flmul@prod+3,f
  2722     02E7                     l1679:
  2723     02E7  1C3D               	btfss	___flmul@prod+3,0
  2724     02E8  2AEA               	goto	u2111
  2725     02E9  2AEB               	goto	u2110
  2726     02EA                     u2111:
  2727     02EA  2B0A               	goto	l1685
  2728     02EB                     u2110:
  2729     02EB                     l1681:
  2730     02EB  083A               	movf	___flmul@prod,w
  2731     02EC  00AE               	movwf	??___flmul
  2732     02ED  083B               	movf	___flmul@prod+1,w
  2733     02EE  00AF               	movwf	??___flmul+1
  2734     02EF  083C               	movf	___flmul@prod+2,w
  2735     02F0  00B0               	movwf	??___flmul+2
  2736     02F1  083D               	movf	___flmul@prod+3,w
  2737     02F2  00B1               	movwf	??___flmul+3
  2738     02F3  3001               	movlw	1
  2739     02F4  00B2               	movwf	??___flmul+4
  2740     02F5                     u2125:
  2741     02F5  0D31               	rlf	??___flmul+3,w
  2742     02F6  0CB1               	rrf	??___flmul+3,f
  2743     02F7  0CB0               	rrf	??___flmul+2,f
  2744     02F8  0CAF               	rrf	??___flmul+1,f
  2745     02F9  0CAE               	rrf	??___flmul,f
  2746     02FA                     u2120:
  2747     02FA  0BB2               	decfsz	??___flmul+4,f
  2748     02FB  2AF5               	goto	u2125
  2749     02FC  0831               	movf	??___flmul+3,w
  2750     02FD  00BD               	movwf	___flmul@prod+3
  2751     02FE  0830               	movf	??___flmul+2,w
  2752     02FF  00BC               	movwf	___flmul@prod+2
  2753     0300  082F               	movf	??___flmul+1,w
  2754     0301  00BB               	movwf	___flmul@prod+1
  2755     0302  082E               	movf	??___flmul,w
  2756     0303  00BA               	movwf	___flmul@prod
  2757     0304                     l1683:
  2758     0304  3001               	movlw	1
  2759     0305  07BE               	addwf	___flmul@temp,f
  2760     0306  1803               	skipnc
  2761     0307  0ABF               	incf	___flmul@temp+1,f
  2762     0308  3000               	movlw	0
  2763     0309  07BF               	addwf	___flmul@temp+1,f
  2764     030A                     l1685:
  2765     030A  083F               	movf	___flmul@temp+1,w
  2766     030B  3A80               	xorlw	128
  2767     030C  00FF               	movwf	btemp+1
  2768     030D  3080               	movlw	128
  2769     030E  027F               	subwf	btemp+1,w
  2770     030F  1D03               	skipz
  2771     0310  2B13               	goto	u2135
  2772     0311  30FF               	movlw	255
  2773     0312  023E               	subwf	___flmul@temp,w
  2774     0313                     u2135:
  2775     0313  1C03               	skipc
  2776     0314  2B16               	goto	u2131
  2777     0315  2B17               	goto	u2130
  2778     0316                     u2131:
  2779     0316  2B22               	goto	l1689
  2780     0317                     u2130:
  2781     0317                     l1687:
  2782     0317  307F               	movlw	127
  2783     0318  1283               	bcf	3,5	;RP0=0, select bank0
  2784     0319  1303               	bcf	3,6	;RP1=0, select bank0
  2785     031A  00BD               	movwf	___flmul@prod+3
  2786     031B  3080               	movlw	128
  2787     031C  00BC               	movwf	___flmul@prod+2
  2788     031D  3000               	movlw	0
  2789     031E  00BB               	movwf	___flmul@prod+1
  2790     031F  3000               	movlw	0
  2791     0320  00BA               	movwf	___flmul@prod
  2792     0321  2B53               	goto	l618
  2793     0322                     l1689:
  2794     0322  1283               	bcf	3,5	;RP0=0, select bank0
  2795     0323  1303               	bcf	3,6	;RP1=0, select bank0
  2796     0324  083F               	movf	___flmul@temp+1,w
  2797     0325  3A80               	xorlw	128
  2798     0326  00FF               	movwf	btemp+1
  2799     0327  3080               	movlw	128
  2800     0328  027F               	subwf	btemp+1,w
  2801     0329  1D03               	skipz
  2802     032A  2B2D               	goto	u2145
  2803     032B  3001               	movlw	1
  2804     032C  023E               	subwf	___flmul@temp,w
  2805     032D                     u2145:
  2806     032D  1803               	skipnc
  2807     032E  2B30               	goto	u2141
  2808     032F  2B31               	goto	u2140
  2809     0330                     u2141:
  2810     0330  2B3D               	goto	l1695
  2811     0331                     u2140:
  2812     0331                     l1691:
  2813     0331  3000               	movlw	0
  2814     0332  1283               	bcf	3,5	;RP0=0, select bank0
  2815     0333  1303               	bcf	3,6	;RP1=0, select bank0
  2816     0334  00BD               	movwf	___flmul@prod+3
  2817     0335  3000               	movlw	0
  2818     0336  00BC               	movwf	___flmul@prod+2
  2819     0337  3000               	movlw	0
  2820     0338  00BB               	movwf	___flmul@prod+1
  2821     0339  3000               	movlw	0
  2822     033A  00BA               	movwf	___flmul@prod
  2823     033B                     l1693:
  2824     033B  01B3               	clrf	___flmul@sign
  2825     033C  2B53               	goto	l618
  2826     033D                     l1695:
  2827     033D  1283               	bcf	3,5	;RP0=0, select bank0
  2828     033E  1303               	bcf	3,6	;RP1=0, select bank0
  2829     033F  083E               	movf	___flmul@temp,w
  2830     0340  00B9               	movwf	___flmul@bexp
  2831     0341  30FF               	movlw	255
  2832     0342  05BA               	andwf	___flmul@prod,f
  2833     0343  30FF               	movlw	255
  2834     0344  05BB               	andwf	___flmul@prod+1,f
  2835     0345  307F               	movlw	127
  2836     0346  05BC               	andwf	___flmul@prod+2,f
  2837     0347  3000               	movlw	0
  2838     0348  05BD               	andwf	___flmul@prod+3,f
  2839     0349                     l1697:
  2840     0349  1C39               	btfss	___flmul@bexp,0
  2841     034A  2B4C               	goto	u2151
  2842     034B  2B4D               	goto	u2150
  2843     034C                     u2151:
  2844     034C  2B4E               	goto	l1701
  2845     034D                     u2150:
  2846     034D                     l1699:
  2847     034D  17BC               	bsf	___flmul@prod+2,7
  2848     034E                     l1701:
  2849     034E  0839               	movf	___flmul@bexp,w
  2850     034F  00AE               	movwf	??___flmul
  2851     0350  1003               	clrc
  2852     0351  0C2E               	rrf	??___flmul,w
  2853     0352  00BD               	movwf	___flmul@prod+3
  2854     0353                     l618:
  2855     0353  0833               	movf	___flmul@sign,w
  2856     0354  00AE               	movwf	??___flmul
  2857     0355  082E               	movf	??___flmul,w
  2858     0356  04BD               	iorwf	___flmul@prod+3,f
  2859     0357                     l1703:
  2860     0357  083D               	movf	___flmul@prod+3,w
  2861     0358  00A9               	movwf	?___flmul+3
  2862     0359  083C               	movf	___flmul@prod+2,w
  2863     035A  00A8               	movwf	?___flmul+2
  2864     035B  083B               	movf	___flmul@prod+1,w
  2865     035C  00A7               	movwf	?___flmul+1
  2866     035D  083A               	movf	___flmul@prod,w
  2867     035E  00A6               	movwf	?___flmul
  2868     035F                     l606:
  2869     035F  0008               	return
  2870     0360                     __end_of___flmul:
  2871                           
  2872                           	psect	text9
  2873     0F84                     __ptext9:	
  2874 ;; *************** function __Umul8_16 *****************
  2875 ;; Defined at:
  2876 ;;		line 4 in file "C:\Program Files\Microchip\xc8\v2.40\pic\sources\c90\common\Umul8_16.c"
  2877 ;; Parameters:    Size  Location     Type
  2878 ;;  multiplier      1    wreg     unsigned char 
  2879 ;;  multiplicand    1    2[COMMON] unsigned char 
  2880 ;; Auto vars:     Size  Location     Type
  2881 ;;  multiplier      1   10[COMMON] unsigned char 
  2882 ;;  word_mpld       2    8[COMMON] unsigned int 
  2883 ;;  product         2    6[COMMON] unsigned int 
  2884 ;; Return value:  Size  Location     Type
  2885 ;;                  2    2[COMMON] unsigned int 
  2886 ;; Registers used:
  2887 ;;		wreg, status,2, status,0
  2888 ;; Tracked objects:
  2889 ;;		On entry : 0/0
  2890 ;;		On exit  : 0/0
  2891 ;;		Unchanged: 0/0
  2892 ;; Data sizes:     COMMON   BANK0   BANK1   BANK3   BANK2
  2893 ;;      Params:         2       0       0       0       0
  2894 ;;      Locals:         5       0       0       0       0
  2895 ;;      Temps:          2       0       0       0       0
  2896 ;;      Totals:         9       0       0       0       0
  2897 ;;Total ram usage:        9 bytes
  2898 ;; Hardware stack levels used: 1
  2899 ;; Hardware stack levels required when called: 1
  2900 ;; This function calls:
  2901 ;;		Nothing
  2902 ;; This function is called by:
  2903 ;;		___flmul
  2904 ;; This function uses a non-reentrant model
  2905 ;;
  2906                           
  2907     0F84                     __Umul8_16:	
  2908                           ;psect for function __Umul8_16
  2909                           
  2910                           
  2911                           ;incstack = 0
  2912                           ; Regs used in __Umul8_16: [wreg+status,2+status,0]
  2913                           ;__Umul8_16@multiplier stored from wreg
  2914     0F84  00FA               	movwf	__Umul8_16@multiplier
  2915     0F85                     l1323:
  2916     0F85  01F6               	clrf	__Umul8_16@product
  2917     0F86  01F7               	clrf	__Umul8_16@product+1
  2918     0F87                     l1325:
  2919     0F87  0872               	movf	__Umul8_16@multiplicand,w
  2920     0F88  00F4               	movwf	??__Umul8_16
  2921     0F89  01F5               	clrf	??__Umul8_16+1
  2922     0F8A  0874               	movf	??__Umul8_16,w
  2923     0F8B  00F8               	movwf	__Umul8_16@word_mpld
  2924     0F8C  0875               	movf	??__Umul8_16+1,w
  2925     0F8D  00F9               	movwf	__Umul8_16@word_mpld+1
  2926     0F8E                     l1327:
  2927     0F8E  1C7A               	btfss	__Umul8_16@multiplier,0
  2928     0F8F  2F91               	goto	u1201
  2929     0F90  2F92               	goto	u1200
  2930     0F91                     u1201:
  2931     0F91  2F98               	goto	l625
  2932     0F92                     u1200:
  2933     0F92                     l1329:
  2934     0F92  0878               	movf	__Umul8_16@word_mpld,w
  2935     0F93  07F6               	addwf	__Umul8_16@product,f
  2936     0F94  1803               	skipnc
  2937     0F95  0AF7               	incf	__Umul8_16@product+1,f
  2938     0F96  0879               	movf	__Umul8_16@word_mpld+1,w
  2939     0F97  07F7               	addwf	__Umul8_16@product+1,f
  2940     0F98                     l625:
  2941     0F98  3001               	movlw	1
  2942     0F99                     u1215:
  2943     0F99  1003               	clrc
  2944     0F9A  0DF8               	rlf	__Umul8_16@word_mpld,f
  2945     0F9B  0DF9               	rlf	__Umul8_16@word_mpld+1,f
  2946     0F9C  3EFF               	addlw	-1
  2947     0F9D  1D03               	skipz
  2948     0F9E  2F99               	goto	u1215
  2949     0F9F  1003               	clrc
  2950     0FA0  0CFA               	rrf	__Umul8_16@multiplier,f
  2951     0FA1                     l1331:
  2952     0FA1  087A               	movf	__Umul8_16@multiplier,w
  2953     0FA2  1D03               	btfss	3,2
  2954     0FA3  2FA5               	goto	u1221
  2955     0FA4  2FA6               	goto	u1220
  2956     0FA5                     u1221:
  2957     0FA5  2F8E               	goto	l1327
  2958     0FA6                     u1220:
  2959     0FA6                     l1333:
  2960     0FA6  0877               	movf	__Umul8_16@product+1,w
  2961     0FA7  00F3               	movwf	?__Umul8_16+1
  2962     0FA8  0876               	movf	__Umul8_16@product,w
  2963     0FA9  00F2               	movwf	?__Umul8_16
  2964     0FAA                     l627:
  2965     0FAA  0008               	return
  2966     0FAB                     __end_of__Umul8_16:
  2967                           
  2968                           	psect	text10
  2969     0360                     __ptext10:	
  2970 ;; *************** function ___fladd *****************
  2971 ;; Defined at:
  2972 ;;		line 10 in file "C:\Program Files\Microchip\xc8\v2.40\pic\sources\c90\common\sprcadd.c"
  2973 ;; Parameters:    Size  Location     Type
  2974 ;;  b               4   32[BANK0 ] unsigned int 
  2975 ;;  a               4   36[BANK0 ] unsigned int 
  2976 ;; Auto vars:     Size  Location     Type
  2977 ;;  grs             1   51[BANK0 ] unsigned char 
  2978 ;;  bexp            1   50[BANK0 ] unsigned char 
  2979 ;;  aexp            1   49[BANK0 ] unsigned char 
  2980 ;;  signs           1   48[BANK0 ] unsigned char 
  2981 ;; Return value:  Size  Location     Type
  2982 ;;                  4   32[BANK0 ] unsigned char 
  2983 ;; Registers used:
  2984 ;;		wreg, status,2, status,0, btemp+1
  2985 ;; Tracked objects:
  2986 ;;		On entry : 0/0
  2987 ;;		On exit  : 0/0
  2988 ;;		Unchanged: 0/0
  2989 ;; Data sizes:     COMMON   BANK0   BANK1   BANK3   BANK2
  2990 ;;      Params:         0       8       0       0       0
  2991 ;;      Locals:         0       4       0       0       0
  2992 ;;      Temps:          0       8       0       0       0
  2993 ;;      Totals:         0      20       0       0       0
  2994 ;;Total ram usage:       20 bytes
  2995 ;; Hardware stack levels used: 1
  2996 ;; Hardware stack levels required when called: 1
  2997 ;; This function calls:
  2998 ;;		Nothing
  2999 ;; This function is called by:
  3000 ;;		_ADC_to_PWM
  3001 ;; This function uses a non-reentrant model
  3002 ;;
  3003                           
  3004     0360                     ___fladd:	
  3005                           ;psect for function ___fladd
  3006                           
  3007     0360                     l1373:	
  3008                           ;incstack = 0
  3009                           ; Regs used in ___fladd: [wreg+status,2+status,0+btemp+1]
  3010                           
  3011     0360  1283               	bcf	3,5	;RP0=0, select bank0
  3012     0361  1303               	bcf	3,6	;RP1=0, select bank0
  3013     0362  0843               	movf	___fladd@b+3,w
  3014     0363  3980               	andlw	128
  3015     0364  00D0               	movwf	___fladd@signs
  3016     0365                     l1375:
  3017     0365  0843               	movf	___fladd@b+3,w
  3018     0366  00C8               	movwf	??___fladd
  3019     0367  0748               	addwf	??___fladd,w
  3020     0368  00D2               	movwf	___fladd@bexp
  3021     0369                     l1377:
  3022     0369  1FC2               	btfss	___fladd@b+2,7
  3023     036A  2B6C               	goto	u1331
  3024     036B  2B6D               	goto	u1330
  3025     036C                     u1331:
  3026     036C  2B6E               	goto	l1381
  3027     036D                     u1330:
  3028     036D                     l1379:
  3029     036D  1452               	bsf	___fladd@bexp,0
  3030     036E                     l1381:
  3031     036E  0852               	movf	___fladd@bexp,w
  3032     036F  1903               	btfsc	3,2
  3033     0370  2B72               	goto	u1341
  3034     0371  2B73               	goto	u1340
  3035     0372                     u1341:
  3036     0372  2B83               	goto	l1391
  3037     0373                     u1340:
  3038     0373                     l1383:
  3039     0373  0A52               	incf	___fladd@bexp,w
  3040     0374  1D03               	btfss	3,2
  3041     0375  2B77               	goto	u1351
  3042     0376  2B78               	goto	u1350
  3043     0377                     u1351:
  3044     0377  2B80               	goto	l1387
  3045     0378                     u1350:
  3046     0378                     l1385:
  3047     0378  3000               	movlw	0
  3048     0379  00C3               	movwf	___fladd@b+3
  3049     037A  3000               	movlw	0
  3050     037B  00C2               	movwf	___fladd@b+2
  3051     037C  3000               	movlw	0
  3052     037D  00C1               	movwf	___fladd@b+1
  3053     037E  3000               	movlw	0
  3054     037F  00C0               	movwf	___fladd@b
  3055     0380                     l1387:
  3056     0380  17C2               	bsf	___fladd@b+2,7
  3057     0381                     l1389:
  3058     0381  01C3               	clrf	___fladd@b+3
  3059     0382  2B8B               	goto	l1393
  3060     0383                     l1391:
  3061     0383  3000               	movlw	0
  3062     0384  00C3               	movwf	___fladd@b+3
  3063     0385  3000               	movlw	0
  3064     0386  00C2               	movwf	___fladd@b+2
  3065     0387  3000               	movlw	0
  3066     0388  00C1               	movwf	___fladd@b+1
  3067     0389  3000               	movlw	0
  3068     038A  00C0               	movwf	___fladd@b
  3069     038B                     l1393:
  3070     038B  0847               	movf	___fladd@a+3,w
  3071     038C  3980               	andlw	128
  3072     038D  00D1               	movwf	___fladd@aexp
  3073     038E                     l1395:
  3074     038E  0851               	movf	___fladd@aexp,w
  3075     038F  0650               	xorwf	___fladd@signs,w
  3076     0390  1903               	skipnz
  3077     0391  2B93               	goto	u1361
  3078     0392  2B94               	goto	u1360
  3079     0393                     u1361:
  3080     0393  2B95               	goto	l1399
  3081     0394                     u1360:
  3082     0394                     l1397:
  3083     0394  1750               	bsf	___fladd@signs,6
  3084     0395                     l1399:
  3085     0395  0847               	movf	___fladd@a+3,w
  3086     0396  00C8               	movwf	??___fladd
  3087     0397  0748               	addwf	??___fladd,w
  3088     0398  00D1               	movwf	___fladd@aexp
  3089     0399                     l1401:
  3090     0399  1FC6               	btfss	___fladd@a+2,7
  3091     039A  2B9C               	goto	u1371
  3092     039B  2B9D               	goto	u1370
  3093     039C                     u1371:
  3094     039C  2B9E               	goto	l1405
  3095     039D                     u1370:
  3096     039D                     l1403:
  3097     039D  1451               	bsf	___fladd@aexp,0
  3098     039E                     l1405:
  3099     039E  0851               	movf	___fladd@aexp,w
  3100     039F  1903               	btfsc	3,2
  3101     03A0  2BA2               	goto	u1381
  3102     03A1  2BA3               	goto	u1380
  3103     03A2                     u1381:
  3104     03A2  2BB3               	goto	l1415
  3105     03A3                     u1380:
  3106     03A3                     l1407:
  3107     03A3  0A51               	incf	___fladd@aexp,w
  3108     03A4  1D03               	btfss	3,2
  3109     03A5  2BA7               	goto	u1391
  3110     03A6  2BA8               	goto	u1390
  3111     03A7                     u1391:
  3112     03A7  2BB0               	goto	l1411
  3113     03A8                     u1390:
  3114     03A8                     l1409:
  3115     03A8  3000               	movlw	0
  3116     03A9  00C7               	movwf	___fladd@a+3
  3117     03AA  3000               	movlw	0
  3118     03AB  00C6               	movwf	___fladd@a+2
  3119     03AC  3000               	movlw	0
  3120     03AD  00C5               	movwf	___fladd@a+1
  3121     03AE  3000               	movlw	0
  3122     03AF  00C4               	movwf	___fladd@a
  3123     03B0                     l1411:
  3124     03B0  17C6               	bsf	___fladd@a+2,7
  3125     03B1                     l1413:
  3126     03B1  01C7               	clrf	___fladd@a+3
  3127     03B2  2BBB               	goto	l510
  3128     03B3                     l1415:
  3129     03B3  3000               	movlw	0
  3130     03B4  00C7               	movwf	___fladd@a+3
  3131     03B5  3000               	movlw	0
  3132     03B6  00C6               	movwf	___fladd@a+2
  3133     03B7  3000               	movlw	0
  3134     03B8  00C5               	movwf	___fladd@a+1
  3135     03B9  3000               	movlw	0
  3136     03BA  00C4               	movwf	___fladd@a
  3137     03BB                     l510:
  3138     03BB  0852               	movf	___fladd@bexp,w
  3139     03BC  0251               	subwf	___fladd@aexp,w
  3140     03BD  1803               	skipnc
  3141     03BE  2BC0               	goto	u1401
  3142     03BF  2BC1               	goto	u1400
  3143     03C0                     u1401:
  3144     03C0  2BE7               	goto	l1451
  3145     03C1                     u1400:
  3146     03C1                     l1417:
  3147     03C1  1F50               	btfss	___fladd@signs,6
  3148     03C2  2BC4               	goto	u1411
  3149     03C3  2BC5               	goto	u1410
  3150     03C4                     u1411:
  3151     03C4  2BC9               	goto	l1421
  3152     03C5                     u1410:
  3153     03C5                     l1419:
  3154     03C5  3080               	movlw	128
  3155     03C6  00C8               	movwf	??___fladd
  3156     03C7  0848               	movf	??___fladd,w
  3157     03C8  06D0               	xorwf	___fladd@signs,f
  3158     03C9                     l1421:
  3159     03C9  0852               	movf	___fladd@bexp,w
  3160     03CA  00D3               	movwf	___fladd@grs
  3161     03CB                     l1423:
  3162     03CB  0851               	movf	___fladd@aexp,w
  3163     03CC  00D2               	movwf	___fladd@bexp
  3164     03CD                     l1425:
  3165     03CD  0853               	movf	___fladd@grs,w
  3166     03CE  00D1               	movwf	___fladd@aexp
  3167     03CF                     l1427:
  3168     03CF  0840               	movf	___fladd@b,w
  3169     03D0  00D3               	movwf	___fladd@grs
  3170     03D1                     l1429:
  3171     03D1  0844               	movf	___fladd@a,w
  3172     03D2  00C0               	movwf	___fladd@b
  3173     03D3                     l1431:
  3174     03D3  0853               	movf	___fladd@grs,w
  3175     03D4  00C4               	movwf	___fladd@a
  3176     03D5                     l1433:
  3177     03D5  0841               	movf	___fladd@b+1,w
  3178     03D6  00D3               	movwf	___fladd@grs
  3179     03D7                     l1435:
  3180     03D7  0845               	movf	___fladd@a+1,w
  3181     03D8  00C1               	movwf	___fladd@b+1
  3182     03D9                     l1437:
  3183     03D9  0853               	movf	___fladd@grs,w
  3184     03DA  00C5               	movwf	___fladd@a+1
  3185     03DB                     l1439:
  3186     03DB  0842               	movf	___fladd@b+2,w
  3187     03DC  00D3               	movwf	___fladd@grs
  3188     03DD                     l1441:
  3189     03DD  0846               	movf	___fladd@a+2,w
  3190     03DE  00C2               	movwf	___fladd@b+2
  3191     03DF                     l1443:
  3192     03DF  0853               	movf	___fladd@grs,w
  3193     03E0  00C6               	movwf	___fladd@a+2
  3194     03E1                     l1445:
  3195     03E1  0843               	movf	___fladd@b+3,w
  3196     03E2  00D3               	movwf	___fladd@grs
  3197     03E3                     l1447:
  3198     03E3  0847               	movf	___fladd@a+3,w
  3199     03E4  00C3               	movwf	___fladd@b+3
  3200     03E5                     l1449:
  3201     03E5  0853               	movf	___fladd@grs,w
  3202     03E6  00C7               	movwf	___fladd@a+3
  3203     03E7                     l1451:
  3204     03E7  01D3               	clrf	___fladd@grs
  3205     03E8                     l1453:
  3206     03E8  0851               	movf	___fladd@aexp,w
  3207     03E9  00C8               	movwf	??___fladd
  3208     03EA  01C9               	clrf	??___fladd+1
  3209     03EB  0849               	movf	??___fladd+1,w
  3210     03EC  00CB               	movwf	??___fladd+3
  3211     03ED  0852               	movf	___fladd@bexp,w
  3212     03EE  0248               	subwf	??___fladd,w
  3213     03EF  00CA               	movwf	??___fladd+2
  3214     03F0  1C03               	skipc
  3215     03F1  03CB               	decf	??___fladd+3,f
  3216     03F2  084B               	movf	??___fladd+3,w
  3217     03F3  3A80               	xorlw	128
  3218     03F4  00FF               	movwf	btemp+1
  3219     03F5  3080               	movlw	128
  3220     03F6  027F               	subwf	btemp+1,w
  3221     03F7  1D03               	skipz
  3222     03F8  2BFB               	goto	u1425
  3223     03F9  301A               	movlw	26
  3224     03FA  024A               	subwf	??___fladd+2,w
  3225     03FB                     u1425:
  3226     03FB  1C03               	skipc
  3227     03FC  2BFE               	goto	u1421
  3228     03FD  2BFF               	goto	u1420
  3229     03FE                     u1421:
  3230     03FE  2C36               	goto	l1469
  3231     03FF                     u1420:
  3232     03FF                     l1455:
  3233     03FF  1283               	bcf	3,5	;RP0=0, select bank0
  3234     0400  1303               	bcf	3,6	;RP1=0, select bank0
  3235     0401  0843               	movf	___fladd@b+3,w
  3236     0402  0442               	iorwf	___fladd@b+2,w
  3237     0403  0441               	iorwf	___fladd@b+1,w
  3238     0404  0440               	iorwf	___fladd@b,w
  3239     0405  1D03               	skipz
  3240     0406  2C08               	goto	u1431
  3241     0407  2C0A               	goto	u1430
  3242     0408                     u1431:
  3243     0408  3001               	movlw	1
  3244     0409  2C0B               	goto	u1440
  3245     040A                     u1430:
  3246     040A  3000               	movlw	0
  3247     040B                     u1440:
  3248     040B  00D3               	movwf	___fladd@grs
  3249     040C  3000               	movlw	0
  3250     040D  00C3               	movwf	___fladd@b+3
  3251     040E  3000               	movlw	0
  3252     040F  00C2               	movwf	___fladd@b+2
  3253     0410  3000               	movlw	0
  3254     0411  00C1               	movwf	___fladd@b+1
  3255     0412  3000               	movlw	0
  3256     0413  00C0               	movwf	___fladd@b
  3257     0414  0851               	movf	___fladd@aexp,w
  3258     0415  00D2               	movwf	___fladd@bexp
  3259     0416  2C3E               	goto	l514
  3260     0417                     l516:
  3261     0417  1C53               	btfss	___fladd@grs,0
  3262     0418  2C1A               	goto	u1451
  3263     0419  2C1B               	goto	u1450
  3264     041A                     u1451:
  3265     041A  2C22               	goto	l1459
  3266     041B                     u1450:
  3267     041B                     l1457:
  3268     041B  0853               	movf	___fladd@grs,w
  3269     041C  00C8               	movwf	??___fladd
  3270     041D  1003               	clrc
  3271     041E  0C48               	rrf	??___fladd,w
  3272     041F  3801               	iorlw	1
  3273     0420  00D3               	movwf	___fladd@grs
  3274     0421  2C24               	goto	l1461
  3275     0422                     l1459:
  3276     0422  1003               	clrc
  3277     0423  0CD3               	rrf	___fladd@grs,f
  3278     0424                     l1461:
  3279     0424  1C40               	btfss	___fladd@b,0
  3280     0425  2C27               	goto	u1461
  3281     0426  2C28               	goto	u1460
  3282     0427                     u1461:
  3283     0427  2C29               	goto	l1465
  3284     0428                     u1460:
  3285     0428                     l1463:
  3286     0428  17D3               	bsf	___fladd@grs,7
  3287     0429                     l1465:
  3288     0429  3001               	movlw	1
  3289     042A  00C8               	movwf	??___fladd
  3290     042B                     u1475:
  3291     042B  0D43               	rlf	___fladd@b+3,w
  3292     042C  0CC3               	rrf	___fladd@b+3,f
  3293     042D  0CC2               	rrf	___fladd@b+2,f
  3294     042E  0CC1               	rrf	___fladd@b+1,f
  3295     042F  0CC0               	rrf	___fladd@b,f
  3296     0430  0BC8               	decfsz	??___fladd& (0+127),f
  3297     0431  2C2B               	goto	u1475
  3298     0432                     l1467:
  3299     0432  3001               	movlw	1
  3300     0433  00C8               	movwf	??___fladd
  3301     0434  0848               	movf	??___fladd,w
  3302     0435  07D2               	addwf	___fladd@bexp,f
  3303     0436                     l1469:
  3304     0436  1283               	bcf	3,5	;RP0=0, select bank0
  3305     0437  1303               	bcf	3,6	;RP1=0, select bank0
  3306     0438  0851               	movf	___fladd@aexp,w
  3307     0439  0252               	subwf	___fladd@bexp,w
  3308     043A  1C03               	skipc
  3309     043B  2C3D               	goto	u1481
  3310     043C  2C3E               	goto	u1480
  3311     043D                     u1481:
  3312     043D  2C17               	goto	l516
  3313     043E                     u1480:
  3314     043E                     l514:
  3315     043E  1B50               	btfsc	___fladd@signs,6
  3316     043F  2C41               	goto	u1491
  3317     0440  2C42               	goto	u1490
  3318     0441                     u1491:
  3319     0441  2C8B               	goto	l1495
  3320     0442                     u1490:
  3321     0442                     l1471:
  3322     0442  0852               	movf	___fladd@bexp,w
  3323     0443  1D03               	btfss	3,2
  3324     0444  2C46               	goto	u1501
  3325     0445  2C47               	goto	u1500
  3326     0446                     u1501:
  3327     0446  2C50               	goto	l1477
  3328     0447                     u1500:
  3329     0447                     l1473:
  3330     0447  3000               	movlw	0
  3331     0448  00C3               	movwf	?___fladd+3
  3332     0449  3000               	movlw	0
  3333     044A  00C2               	movwf	?___fladd+2
  3334     044B  3000               	movlw	0
  3335     044C  00C1               	movwf	?___fladd+1
  3336     044D  3000               	movlw	0
  3337     044E  00C0               	movwf	?___fladd
  3338     044F  2DB7               	goto	l523
  3339     0450                     l1477:
  3340     0450  0844               	movf	___fladd@a,w
  3341     0451  07C0               	addwf	___fladd@b,f
  3342     0452  0845               	movf	___fladd@a+1,w
  3343     0453  1103               	clrz
  3344     0454  1803               	skipnc
  3345     0455  3E01               	addlw	1
  3346     0456  1903               	skipnz
  3347     0457  2C59               	goto	u1511
  3348     0458  07C1               	addwf	___fladd@b+1,f
  3349     0459                     u1511:
  3350     0459  0846               	movf	___fladd@a+2,w
  3351     045A  1103               	clrz
  3352     045B  1803               	skipnc
  3353     045C  3E01               	addlw	1
  3354     045D  1903               	skipnz
  3355     045E  2C60               	goto	u1512
  3356     045F  07C2               	addwf	___fladd@b+2,f
  3357     0460                     u1512:
  3358     0460  0847               	movf	___fladd@a+3,w
  3359     0461  1103               	clrz
  3360     0462  1803               	skipnc
  3361     0463  3E01               	addlw	1
  3362     0464  1903               	skipnz
  3363     0465  2C67               	goto	u1513
  3364     0466  07C3               	addwf	___fladd@b+3,f
  3365     0467                     u1513:
  3366     0467                     l1479:
  3367     0467  1C43               	btfss	___fladd@b+3,0
  3368     0468  2C6A               	goto	u1521
  3369     0469  2C6B               	goto	u1520
  3370     046A                     u1521:
  3371     046A  2D3F               	goto	l1529
  3372     046B                     u1520:
  3373     046B                     l1481:
  3374     046B  1C53               	btfss	___fladd@grs,0
  3375     046C  2C6E               	goto	u1531
  3376     046D  2C6F               	goto	u1530
  3377     046E                     u1531:
  3378     046E  2C76               	goto	l1485
  3379     046F                     u1530:
  3380     046F                     l1483:
  3381     046F  0853               	movf	___fladd@grs,w
  3382     0470  00C8               	movwf	??___fladd
  3383     0471  1003               	clrc
  3384     0472  0C48               	rrf	??___fladd,w
  3385     0473  3801               	iorlw	1
  3386     0474  00D3               	movwf	___fladd@grs
  3387     0475  2C78               	goto	l1487
  3388     0476                     l1485:
  3389     0476  1003               	clrc
  3390     0477  0CD3               	rrf	___fladd@grs,f
  3391     0478                     l1487:
  3392     0478  1C40               	btfss	___fladd@b,0
  3393     0479  2C7B               	goto	u1541
  3394     047A  2C7C               	goto	u1540
  3395     047B                     u1541:
  3396     047B  2C7D               	goto	l1491
  3397     047C                     u1540:
  3398     047C                     l1489:
  3399     047C  17D3               	bsf	___fladd@grs,7
  3400     047D                     l1491:
  3401     047D  3001               	movlw	1
  3402     047E  00C8               	movwf	??___fladd
  3403     047F                     u1555:
  3404     047F  0D43               	rlf	___fladd@b+3,w
  3405     0480  0CC3               	rrf	___fladd@b+3,f
  3406     0481  0CC2               	rrf	___fladd@b+2,f
  3407     0482  0CC1               	rrf	___fladd@b+1,f
  3408     0483  0CC0               	rrf	___fladd@b,f
  3409     0484  0BC8               	decfsz	??___fladd& (0+127),f
  3410     0485  2C7F               	goto	u1555
  3411     0486                     l1493:
  3412     0486  3001               	movlw	1
  3413     0487  00C8               	movwf	??___fladd
  3414     0488  0848               	movf	??___fladd,w
  3415     0489  07D2               	addwf	___fladd@bexp,f
  3416     048A  2D3F               	goto	l1529
  3417     048B                     l1495:
  3418     048B  0843               	movf	___fladd@b+3,w
  3419     048C  3A80               	xorlw	128
  3420     048D  00FF               	movwf	btemp+1
  3421     048E  0847               	movf	___fladd@a+3,w
  3422     048F  3A80               	xorlw	128
  3423     0490  027F               	subwf	btemp+1,w
  3424     0491  1D03               	skipz
  3425     0492  2C9D               	goto	u1563
  3426     0493  0846               	movf	___fladd@a+2,w
  3427     0494  0242               	subwf	___fladd@b+2,w
  3428     0495  1D03               	skipz
  3429     0496  2C9D               	goto	u1563
  3430     0497  0845               	movf	___fladd@a+1,w
  3431     0498  0241               	subwf	___fladd@b+1,w
  3432     0499  1D03               	skipz
  3433     049A  2C9D               	goto	u1563
  3434     049B  0844               	movf	___fladd@a,w
  3435     049C  0240               	subwf	___fladd@b,w
  3436     049D                     u1563:
  3437     049D  1803               	skipnc
  3438     049E  2CA0               	goto	u1561
  3439     049F  2CA1               	goto	u1560
  3440     04A0                     u1561:
  3441     04A0  2CF9               	goto	l1505
  3442     04A1                     u1560:
  3443     04A1                     l1497:
  3444     04A1  30FF               	movlw	255
  3445     04A2  00C8               	movwf	??___fladd
  3446     04A3  30FF               	movlw	255
  3447     04A4  00C9               	movwf	??___fladd+1
  3448     04A5  30FF               	movlw	255
  3449     04A6  00CA               	movwf	??___fladd+2
  3450     04A7  30FF               	movlw	255
  3451     04A8  00CB               	movwf	??___fladd+3
  3452     04A9  0844               	movf	___fladd@a,w
  3453     04AA  00CC               	movwf	??___fladd+4
  3454     04AB  0845               	movf	___fladd@a+1,w
  3455     04AC  00CD               	movwf	??___fladd+5
  3456     04AD  0846               	movf	___fladd@a+2,w
  3457     04AE  00CE               	movwf	??___fladd+6
  3458     04AF  0847               	movf	___fladd@a+3,w
  3459     04B0  00CF               	movwf	??___fladd+7
  3460     04B1  0840               	movf	___fladd@b,w
  3461     04B2  02CC               	subwf	??___fladd+4,f
  3462     04B3  0841               	movf	___fladd@b+1,w
  3463     04B4  1C03               	skipc
  3464     04B5  0F41               	incfsz	___fladd@b+1,w
  3465     04B6  2CB8               	goto	u1571
  3466     04B7  2CB9               	goto	u1572
  3467     04B8                     u1571:
  3468     04B8  02CD               	subwf	??___fladd+5,f
  3469     04B9                     u1572:
  3470     04B9  0842               	movf	___fladd@b+2,w
  3471     04BA  1C03               	skipc
  3472     04BB  0F42               	incfsz	___fladd@b+2,w
  3473     04BC  2CBE               	goto	u1573
  3474     04BD  2CBF               	goto	u1574
  3475     04BE                     u1573:
  3476     04BE  02CE               	subwf	??___fladd+6,f
  3477     04BF                     u1574:
  3478     04BF  0843               	movf	___fladd@b+3,w
  3479     04C0  1C03               	skipc
  3480     04C1  0F43               	incfsz	___fladd@b+3,w
  3481     04C2  2CC4               	goto	u1575
  3482     04C3  2CC5               	goto	u1576
  3483     04C4                     u1575:
  3484     04C4  02CF               	subwf	??___fladd+7,f
  3485     04C5                     u1576:
  3486     04C5  084C               	movf	??___fladd+4,w
  3487     04C6  07C8               	addwf	??___fladd,f
  3488     04C7  084D               	movf	??___fladd+5,w
  3489     04C8  1803               	skipnc
  3490     04C9  0F4D               	incfsz	??___fladd+5,w
  3491     04CA  2CCC               	goto	u1580
  3492     04CB  2CCD               	goto	u1581
  3493     04CC                     u1580:
  3494     04CC  07C9               	addwf	??___fladd+1,f
  3495     04CD                     u1581:
  3496     04CD  084E               	movf	??___fladd+6,w
  3497     04CE  1803               	skipnc
  3498     04CF  0F4E               	incfsz	??___fladd+6,w
  3499     04D0  2CD2               	goto	u1582
  3500     04D1  2CD3               	goto	u1583
  3501     04D2                     u1582:
  3502     04D2  07CA               	addwf	??___fladd+2,f
  3503     04D3                     u1583:
  3504     04D3  084F               	movf	??___fladd+7,w
  3505     04D4  1803               	skipnc
  3506     04D5  0A4F               	incf	??___fladd+7,w
  3507     04D6  07CB               	addwf	??___fladd+3,f
  3508     04D7  084B               	movf	??___fladd+3,w
  3509     04D8  00C3               	movwf	___fladd@b+3
  3510     04D9  084A               	movf	??___fladd+2,w
  3511     04DA  00C2               	movwf	___fladd@b+2
  3512     04DB  0849               	movf	??___fladd+1,w
  3513     04DC  00C1               	movwf	___fladd@b+1
  3514     04DD  0848               	movf	??___fladd,w
  3515     04DE  00C0               	movwf	___fladd@b
  3516     04DF                     l1499:
  3517     04DF  3080               	movlw	128
  3518     04E0  00C8               	movwf	??___fladd
  3519     04E1  0848               	movf	??___fladd,w
  3520     04E2  06D0               	xorwf	___fladd@signs,f
  3521     04E3  09D3               	comf	___fladd@grs,f
  3522     04E4  0AD3               	incf	___fladd@grs,f
  3523     04E5                     l1501:
  3524     04E5  0853               	movf	___fladd@grs,w
  3525     04E6  1D03               	btfss	3,2
  3526     04E7  2CE9               	goto	u1591
  3527     04E8  2CEA               	goto	u1590
  3528     04E9                     u1591:
  3529     04E9  2D07               	goto	l531
  3530     04EA                     u1590:
  3531     04EA                     l1503:
  3532     04EA  3001               	movlw	1
  3533     04EB  07C0               	addwf	___fladd@b,f
  3534     04EC  3000               	movlw	0
  3535     04ED  1803               	skipnc
  3536     04EE  3001               	movlw	1
  3537     04EF  07C1               	addwf	___fladd@b+1,f
  3538     04F0  3000               	movlw	0
  3539     04F1  1803               	skipnc
  3540     04F2  3001               	movlw	1
  3541     04F3  07C2               	addwf	___fladd@b+2,f
  3542     04F4  3000               	movlw	0
  3543     04F5  1803               	skipnc
  3544     04F6  3001               	movlw	1
  3545     04F7  07C3               	addwf	___fladd@b+3,f
  3546     04F8  2D07               	goto	l531
  3547     04F9                     l1505:
  3548     04F9  0844               	movf	___fladd@a,w
  3549     04FA  02C0               	subwf	___fladd@b,f
  3550     04FB  0845               	movf	___fladd@a+1,w
  3551     04FC  1C03               	skipc
  3552     04FD  0F45               	incfsz	___fladd@a+1,w
  3553     04FE  02C1               	subwf	___fladd@b+1,f
  3554     04FF  0846               	movf	___fladd@a+2,w
  3555     0500  1C03               	skipc
  3556     0501  0F46               	incfsz	___fladd@a+2,w
  3557     0502  02C2               	subwf	___fladd@b+2,f
  3558     0503  0847               	movf	___fladd@a+3,w
  3559     0504  1C03               	skipc
  3560     0505  0F47               	incfsz	___fladd@a+3,w
  3561     0506  02C3               	subwf	___fladd@b+3,f
  3562     0507                     l531:
  3563     0507  0843               	movf	___fladd@b+3,w
  3564     0508  0442               	iorwf	___fladd@b+2,w
  3565     0509  0441               	iorwf	___fladd@b+1,w
  3566     050A  0440               	iorwf	___fladd@b,w
  3567     050B  1D03               	skipz
  3568     050C  2D0E               	goto	u1601
  3569     050D  2D0F               	goto	u1600
  3570     050E                     u1601:
  3571     050E  2D3B               	goto	l1527
  3572     050F                     u1600:
  3573     050F                     l1507:
  3574     050F  0853               	movf	___fladd@grs,w
  3575     0510  1D03               	btfss	3,2
  3576     0511  2D13               	goto	u1611
  3577     0512  2D14               	goto	u1610
  3578     0513                     u1611:
  3579     0513  2D3B               	goto	l1527
  3580     0514                     u1610:
  3581     0514                     l1509:
  3582     0514  3000               	movlw	0
  3583     0515  00C3               	movwf	?___fladd+3
  3584     0516  3000               	movlw	0
  3585     0517  00C2               	movwf	?___fladd+2
  3586     0518  3000               	movlw	0
  3587     0519  00C1               	movwf	?___fladd+1
  3588     051A  3000               	movlw	0
  3589     051B  00C0               	movwf	?___fladd
  3590     051C  2DB7               	goto	l523
  3591     051D                     l1513:
  3592     051D  3001               	movlw	1
  3593     051E  00C8               	movwf	??___fladd
  3594     051F                     u1625:
  3595     051F  1003               	clrc
  3596     0520  0DC0               	rlf	___fladd@b,f
  3597     0521  0DC1               	rlf	___fladd@b+1,f
  3598     0522  0DC2               	rlf	___fladd@b+2,f
  3599     0523  0DC3               	rlf	___fladd@b+3,f
  3600     0524  0BC8               	decfsz	??___fladd,f
  3601     0525  2D1F               	goto	u1625
  3602     0526                     l1515:
  3603     0526  1FD3               	btfss	___fladd@grs,7
  3604     0527  2D29               	goto	u1631
  3605     0528  2D2A               	goto	u1630
  3606     0529                     u1631:
  3607     0529  2D2B               	goto	l535
  3608     052A                     u1630:
  3609     052A                     l1517:
  3610     052A  1440               	bsf	___fladd@b,0
  3611     052B                     l535:
  3612     052B  1C53               	btfss	___fladd@grs,0
  3613     052C  2D2E               	goto	u1641
  3614     052D  2D2F               	goto	u1640
  3615     052E                     u1641:
  3616     052E  2D32               	goto	l1521
  3617     052F                     u1640:
  3618     052F                     l1519:
  3619     052F  1403               	setc
  3620     0530  0DD3               	rlf	___fladd@grs,f
  3621     0531  2D34               	goto	l1523
  3622     0532                     l1521:
  3623     0532  1003               	clrc
  3624     0533  0DD3               	rlf	___fladd@grs,f
  3625     0534                     l1523:
  3626     0534  0852               	movf	___fladd@bexp,w
  3627     0535  1903               	btfsc	3,2
  3628     0536  2D38               	goto	u1651
  3629     0537  2D39               	goto	u1650
  3630     0538                     u1651:
  3631     0538  2D3B               	goto	l1527
  3632     0539                     u1650:
  3633     0539                     l1525:
  3634     0539  3001               	movlw	1
  3635     053A  02D2               	subwf	___fladd@bexp,f
  3636     053B                     l1527:
  3637     053B  1FC2               	btfss	___fladd@b+2,7
  3638     053C  2D3E               	goto	u1661
  3639     053D  2D3F               	goto	u1660
  3640     053E                     u1661:
  3641     053E  2D1D               	goto	l1513
  3642     053F                     u1660:
  3643     053F                     l1529:
  3644     053F  01D1               	clrf	___fladd@aexp
  3645     0540                     l1531:
  3646     0540  1FD3               	btfss	___fladd@grs,7
  3647     0541  2D43               	goto	u1671
  3648     0542  2D44               	goto	u1670
  3649     0543                     u1671:
  3650     0543  2D52               	goto	l1539
  3651     0544                     u1670:
  3652     0544                     l1533:
  3653     0544  0853               	movf	___fladd@grs,w
  3654     0545  397F               	andlw	127
  3655     0546  1903               	btfsc	3,2
  3656     0547  2D49               	goto	u1681
  3657     0548  2D4A               	goto	u1680
  3658     0549                     u1681:
  3659     0549  2D4D               	goto	l541
  3660     054A                     u1680:
  3661     054A                     l1535:
  3662     054A  01D1               	clrf	___fladd@aexp
  3663     054B  0AD1               	incf	___fladd@aexp,f
  3664     054C  2D52               	goto	l1539
  3665     054D                     l541:
  3666     054D  1C40               	btfss	___fladd@b,0
  3667     054E  2D50               	goto	u1691
  3668     054F  2D51               	goto	u1690
  3669     0550                     u1691:
  3670     0550  2D52               	goto	l1539
  3671     0551                     u1690:
  3672     0551  2D4A               	goto	l1535
  3673     0552                     l1539:
  3674     0552  0851               	movf	___fladd@aexp,w
  3675     0553  1903               	btfsc	3,2
  3676     0554  2D56               	goto	u1701
  3677     0555  2D57               	goto	u1700
  3678     0556                     u1701:
  3679     0556  2D8B               	goto	l544
  3680     0557                     u1700:
  3681     0557                     l1541:
  3682     0557  3001               	movlw	1
  3683     0558  07C0               	addwf	___fladd@b,f
  3684     0559  3000               	movlw	0
  3685     055A  1803               	skipnc
  3686     055B  3001               	movlw	1
  3687     055C  07C1               	addwf	___fladd@b+1,f
  3688     055D  3000               	movlw	0
  3689     055E  1803               	skipnc
  3690     055F  3001               	movlw	1
  3691     0560  07C2               	addwf	___fladd@b+2,f
  3692     0561  3000               	movlw	0
  3693     0562  1803               	skipnc
  3694     0563  3001               	movlw	1
  3695     0564  07C3               	addwf	___fladd@b+3,f
  3696     0565                     l1543:
  3697     0565  1C43               	btfss	___fladd@b+3,0
  3698     0566  2D68               	goto	u1711
  3699     0567  2D69               	goto	u1710
  3700     0568                     u1711:
  3701     0568  2D8B               	goto	l544
  3702     0569                     u1710:
  3703     0569                     l1545:
  3704     0569  0840               	movf	___fladd@b,w
  3705     056A  00C8               	movwf	??___fladd
  3706     056B  0841               	movf	___fladd@b+1,w
  3707     056C  00C9               	movwf	??___fladd+1
  3708     056D  0842               	movf	___fladd@b+2,w
  3709     056E  00CA               	movwf	??___fladd+2
  3710     056F  0843               	movf	___fladd@b+3,w
  3711     0570  00CB               	movwf	??___fladd+3
  3712     0571  3001               	movlw	1
  3713     0572  00CC               	movwf	??___fladd+4
  3714     0573                     u1725:
  3715     0573  0D4B               	rlf	??___fladd+3,w
  3716     0574  0CCB               	rrf	??___fladd+3,f
  3717     0575  0CCA               	rrf	??___fladd+2,f
  3718     0576  0CC9               	rrf	??___fladd+1,f
  3719     0577  0CC8               	rrf	??___fladd,f
  3720     0578                     u1720:
  3721     0578  0BCC               	decfsz	??___fladd+4,f
  3722     0579  2D73               	goto	u1725
  3723     057A  084B               	movf	??___fladd+3,w
  3724     057B  00C3               	movwf	___fladd@b+3
  3725     057C  084A               	movf	??___fladd+2,w
  3726     057D  00C2               	movwf	___fladd@b+2
  3727     057E  0849               	movf	??___fladd+1,w
  3728     057F  00C1               	movwf	___fladd@b+1
  3729     0580  0848               	movf	??___fladd,w
  3730     0581  00C0               	movwf	___fladd@b
  3731     0582  0A52               	incf	___fladd@bexp,w
  3732     0583  1903               	btfsc	3,2
  3733     0584  2D86               	goto	u1731
  3734     0585  2D87               	goto	u1730
  3735     0586                     u1731:
  3736     0586  2D8B               	goto	l544
  3737     0587                     u1730:
  3738     0587                     l1547:
  3739     0587  3001               	movlw	1
  3740     0588  00C8               	movwf	??___fladd
  3741     0589  0848               	movf	??___fladd,w
  3742     058A  07D2               	addwf	___fladd@bexp,f
  3743     058B                     l544:
  3744     058B  0A52               	incf	___fladd@bexp,w
  3745     058C  1903               	btfsc	3,2
  3746     058D  2D8F               	goto	u1741
  3747     058E  2D90               	goto	u1740
  3748     058F                     u1741:
  3749     058F  2D95               	goto	l1551
  3750     0590                     u1740:
  3751     0590                     l1549:
  3752     0590  0852               	movf	___fladd@bexp,w
  3753     0591  1D03               	btfss	3,2
  3754     0592  2D94               	goto	u1751
  3755     0593  2D95               	goto	u1750
  3756     0594                     u1751:
  3757     0594  2DA3               	goto	l1557
  3758     0595                     u1750:
  3759     0595                     l1551:
  3760     0595  3000               	movlw	0
  3761     0596  00C3               	movwf	___fladd@b+3
  3762     0597  3000               	movlw	0
  3763     0598  00C2               	movwf	___fladd@b+2
  3764     0599  3000               	movlw	0
  3765     059A  00C1               	movwf	___fladd@b+1
  3766     059B  3000               	movlw	0
  3767     059C  00C0               	movwf	___fladd@b
  3768     059D                     l1553:
  3769     059D  0852               	movf	___fladd@bexp,w
  3770     059E  1D03               	btfss	3,2
  3771     059F  2DA1               	goto	u1761
  3772     05A0  2DA2               	goto	u1760
  3773     05A1                     u1761:
  3774     05A1  2DA3               	goto	l1557
  3775     05A2                     u1760:
  3776     05A2                     l1555:
  3777     05A2  01D0               	clrf	___fladd@signs
  3778     05A3                     l1557:
  3779     05A3  1C52               	btfss	___fladd@bexp,0
  3780     05A4  2DA6               	goto	u1771
  3781     05A5  2DA7               	goto	u1770
  3782     05A6                     u1771:
  3783     05A6  2DA9               	goto	l1561
  3784     05A7                     u1770:
  3785     05A7                     l1559:
  3786     05A7  17C2               	bsf	___fladd@b+2,7
  3787     05A8  2DAD               	goto	l552
  3788     05A9                     l1561:
  3789     05A9  307F               	movlw	127
  3790     05AA  00C8               	movwf	??___fladd
  3791     05AB  0848               	movf	??___fladd,w
  3792     05AC  05C2               	andwf	___fladd@b+2,f
  3793     05AD                     l552:
  3794     05AD  0852               	movf	___fladd@bexp,w
  3795     05AE  00C8               	movwf	??___fladd
  3796     05AF  1003               	clrc
  3797     05B0  0C48               	rrf	??___fladd,w
  3798     05B1  00C3               	movwf	___fladd@b+3
  3799     05B2                     l1563:
  3800     05B2  1FD0               	btfss	___fladd@signs,7
  3801     05B3  2DB5               	goto	u1781
  3802     05B4  2DB6               	goto	u1780
  3803     05B5                     u1781:
  3804     05B5  2DB7               	goto	l553
  3805     05B6                     u1780:
  3806     05B6                     l1565:
  3807     05B6  17C3               	bsf	___fladd@b+3,7
  3808     05B7                     l553:
  3809     05B7                     l523:
  3810     05B7  0008               	return
  3811     05B8                     __end_of___fladd:
  3812                           
  3813                           	psect	text11
  3814     0F3B                     __ptext11:	
  3815 ;; *************** function _isr *****************
  3816 ;; Defined at:
  3817 ;;		line 54 in file "main.c"
  3818 ;; Parameters:    Size  Location     Type
  3819 ;;		None
  3820 ;; Auto vars:     Size  Location     Type
  3821 ;;		None
  3822 ;; Return value:  Size  Location     Type
  3823 ;;                  1    wreg      void 
  3824 ;; Registers used:
  3825 ;;		None
  3826 ;; Tracked objects:
  3827 ;;		On entry : 0/0
  3828 ;;		On exit  : 0/0
  3829 ;;		Unchanged: 0/0
  3830 ;; Data sizes:     COMMON   BANK0   BANK1   BANK3   BANK2
  3831 ;;      Params:         0       0       0       0       0
  3832 ;;      Locals:         0       0       0       0       0
  3833 ;;      Temps:          2       0       0       0       0
  3834 ;;      Totals:         2       0       0       0       0
  3835 ;;Total ram usage:        2 bytes
  3836 ;; Hardware stack levels used: 1
  3837 ;; This function calls:
  3838 ;;		Nothing
  3839 ;; This function is called by:
  3840 ;;		Interrupt level 1
  3841 ;; This function uses a non-reentrant model
  3842 ;;
  3843                           
  3844     0F3B                     _isr:	
  3845                           ;psect for function _isr
  3846                           
  3847     0F3B                     i1l1237:
  3848                           
  3849                           ;main.c: 55:     INTCONbits.T0IF = 0;
  3850     0F3B  110B               	bcf	11,2	;volatile
  3851                           
  3852                           ;main.c: 61:     if (PIR1bits.ADIF){
  3853     0F3C  1283               	bcf	3,5	;RP0=0, select bank0
  3854     0F3D  1303               	bcf	3,6	;RP1=0, select bank0
  3855     0F3E  1F0C               	btfss	12,6	;volatile
  3856     0F3F  2F41               	goto	u113_21
  3857     0F40  2F42               	goto	u113_20
  3858     0F41                     u113_21:
  3859     0F41  2F43               	goto	i1l82
  3860     0F42                     u113_20:
  3861     0F42                     i1l1239:
  3862                           
  3863                           ;main.c: 63:         PIR1bits.ADIF=0;
  3864     0F42  130C               	bcf	12,6	;volatile
  3865     0F43                     i1l82:
  3866     0F43  0871               	movf	??_isr+1,w
  3867     0F44  008A               	movwf	10
  3868     0F45  0E70               	swapf	??_isr,w
  3869     0F46  0083               	movwf	3
  3870     0F47  0EFE               	swapf	btemp,f
  3871     0F48  0E7E               	swapf	btemp,w
  3872     0F49  0009               	retfie
  3873     0F4A                     __end_of_isr:
  3874     007E                     btemp	set	126	;btemp
  3875     007E                     wtemp0	set	126
  3876                           
  3877                           	psect	intentry
  3878     0004                     __pintentry:	
  3879                           ;incstack = 0
  3880                           ; Regs used in _isr: []
  3881                           
  3882     0004                     interrupt_function:
  3883     007E                     saved_w	set	btemp
  3884     0004  00FE               	movwf	btemp
  3885     0005  0E03               	swapf	3,w
  3886     0006  00F0               	movwf	??_isr
  3887     0007  080A               	movf	10,w
  3888     0008  00F1               	movwf	??_isr+1
  3889     0009  120A  158A  2F3B   	ljmp	_isr
  3890                           
  3891                           	psect	idloc
  3892                           
  3893                           ;Config register IDLOC0 @ 0x2000
  3894                           ;	unspecified, using default values
  3895     2000                     	org	8192
  3896     2000  3FFF               	dw	16383
  3897                           
  3898                           ;Config register IDLOC1 @ 0x2001
  3899                           ;	unspecified, using default values
  3900     2001                     	org	8193
  3901     2001  3FFF               	dw	16383
  3902                           
  3903                           ;Config register IDLOC2 @ 0x2002
  3904                           ;	unspecified, using default values
  3905     2002                     	org	8194
  3906     2002  3FFF               	dw	16383
  3907                           
  3908                           ;Config register IDLOC3 @ 0x2003
  3909                           ;	unspecified, using default values
  3910     2003                     	org	8195
  3911     2003  3FFF               	dw	16383
  3912                           
  3913                           	psect	config
  3914                           
  3915                           ;Config register CONFIG1 @ 0x2007
  3916                           ;	Oscillator Selection bits
  3917                           ;	FOSC = INTRC_NOCLKOUT, INTOSCIO oscillator: I/O function on RA6/OSC2/CLKOUT pin, I/O f
      +                          unction on RA7/OSC1/CLKIN
  3918                           ;	Watchdog Timer Enable bit
  3919                           ;	WDTE = OFF, WDT disabled and can be enabled by SWDTEN bit of the WDTCON register
  3920                           ;	Power-up Timer Enable bit
  3921                           ;	PWRTE = OFF, PWRT disabled
  3922                           ;	RE3/MCLR pin function select bit
  3923                           ;	MCLRE = OFF, RE3/MCLR pin function is digital input, MCLR internally tied to VDD
  3924                           ;	Code Protection bit
  3925                           ;	CP = OFF, Program memory code protection is disabled
  3926                           ;	Data Code Protection bit
  3927                           ;	CPD = OFF, Data memory code protection is disabled
  3928                           ;	Brown Out Reset Selection bits
  3929                           ;	BOREN = OFF, BOR disabled
  3930                           ;	Internal External Switchover bit
  3931                           ;	IESO = OFF, Internal/External Switchover mode is disabled
  3932                           ;	Fail-Safe Clock Monitor Enabled bit
  3933                           ;	FCMEN = OFF, Fail-Safe Clock Monitor is disabled
  3934                           ;	Low Voltage Programming Enable bit
  3935                           ;	LVP = OFF, RB3 pin has digital I/O, HV on MCLR must be used for programming
  3936                           ;	In-Circuit Debugger Mode bit
  3937                           ;	DEBUG = 0x1, unprogramme  3938     2007                     	org	8199
  3939     2007  20D4               	dw	8404
  3940                           
  3941                           ;Config register CONFIG2 @ 0x2008
  3942                           ;	Brown-out Reset Selection bit
  3943                           ;	BOR4V = BOR40V, Brown-out Reset set to 4.0V
  3944                           ;	Flash Program Memory Self Write Enable bits
  3945                           ;	WRT = OFF, Write protection off
  3946     2008                     	org	8200
  3947     2008  3FFF               	dw	16383

Data Sizes:
    Strings     0
    Constant    0
    Data        0
    BSS         6
    Persistent  0
    Stack       0

Auto Spaces:
    Space          Size  Autos    Used
    COMMON           14     11      11
    BANK0            80     66      72
    BANK1            80      0       0
    BANK3            96      0       0
    BANK2            96      0       0

Pointer List with Targets:

    None.

Critical Paths under _main in COMMON

    ___flmul->__Umul8_16

Critical Paths under _isr in COMMON

    None.

Critical Paths under _main in BANK0

    _main->_ADC_to_PWM
    _ADC_to_PWM->___fltol
    ___fltol->___fladd
    ___flmul->___xxtofl
    ___fladd->___flmul

Critical Paths under _isr in BANK0

    None.

Critical Paths under _main in BANK1

    None.

Critical Paths under _isr in BANK1

    None.

Critical Paths under _main in BANK3

    None.

Critical Paths under _isr in BANK3

    None.

Critical Paths under _main in BANK2

    None.

Critical Paths under _isr in BANK2

    None.

Call Graph Tables:

 ---------------------------------------------------------------------------------
 (Depth) Function   	        Calls       Base Space   Used Autos Params    Refs
 ---------------------------------------------------------------------------------
 (0) _main                                                 2     2      0    5556
                                             64 BANK0      2     2      0
                         _ADC_to_PWM
                            _incModo
                              _setup
                           _setupADC
                           _setupPWM
 ---------------------------------------------------------------------------------
 (1) _setupPWM                                             0     0      0       0
 ---------------------------------------------------------------------------------
 (1) _setupADC                                             1     1      0       0
                                              2 COMMON     1     1      0
 ---------------------------------------------------------------------------------
 (1) _setup                                                0     0      0       0
 ---------------------------------------------------------------------------------
 (1) _incModo                                              0     0      0       0
 ---------------------------------------------------------------------------------
 (1) _ADC_to_PWM                                           2     0      2    5556
                                             62 BANK0      2     0      2
                            ___fladd
                            ___flmul
                            ___fltol
                           ___xxtofl
 ---------------------------------------------------------------------------------
 (2) ___xxtofl                                            14    10      4     398
                                              2 COMMON     8     4      4
                                              0 BANK0      6     6      0
 ---------------------------------------------------------------------------------
 (2) ___fltol                                             10     6      4     305
                                             52 BANK0     10     6      4
                            ___fladd (ARG)
                            ___flmul (ARG)
                           ___xxtofl (ARG)
 ---------------------------------------------------------------------------------
 (2) ___flmul                                             26    18      8    2417
                                              6 BANK0     26    18      8
                          __Umul8_16
                           ___xxtofl (ARG)
 ---------------------------------------------------------------------------------
 (3) __Umul8_16                                            9     7      2     799
                                              2 COMMON     9     7      2
 ---------------------------------------------------------------------------------
 (2) ___fladd                                             20    12      8    2262
                                             32 BANK0     20    12      8
                            ___flmul (ARG)
                           ___xxtofl (ARG)
 ---------------------------------------------------------------------------------
 Estimated maximum stack depth 3
 ---------------------------------------------------------------------------------
 (Depth) Function   	        Calls       Base Space   Used Autos Params    Refs
 ---------------------------------------------------------------------------------
 (4) _isr                                                  2     2      0       0
                                              0 COMMON     2     2      0
 ---------------------------------------------------------------------------------
 Estimated maximum stack depth 4
 ---------------------------------------------------------------------------------

 Call Graph Graphs:

 _main (ROOT)
   _ADC_to_PWM
     ___fladd
       ___flmul (ARG)
         __Umul8_16
         ___xxtofl (ARG)
       ___xxtofl (ARG)
     ___flmul
     ___fltol
       ___fladd (ARG)
       ___flmul (ARG)
       ___xxtofl (ARG)
     ___xxtofl
   _incModo
   _setup
   _setupADC
   _setupPWM

 _isr (ROOT)

 Address spaces:
Name               Size   Autos  Total    Cost      Usage
BITCOMMON            E      0       0       0        0.0%
EEDATA             100      0       0       0        0.0%
NULL                 0      0       0       0        0.0%
CODE                 0      0       0       0        0.0%
COMMON               E      B       B       1       78.6%
BITSFR0              0      0       0       1        0.0%
SFR0                 0      0       0       1        0.0%
BITSFR1              0      0       0       2        0.0%
SFR1                 0      0       0       2        0.0%
STACK                0      0       0       2        0.0%
ABS                  0      0      53       3        0.0%
BITBANK0            50      0       0       4        0.0%
BITSFR3              0      0       0       4        0.0%
SFR3                 0      0       0       4        0.0%
BANK0               50     42      48       5       90.0%
BITSFR2              0      0       0       5        0.0%
SFR2                 0      0       0       5        0.0%
BITBANK1            50      0       0       6        0.0%
BANK1               50      0       0       7        0.0%
BITBANK3            60      0       0       8        0.0%
BANK3               60      0       0       9        0.0%
BITBANK2            60      0       0      10        0.0%
BANK2               60      0       0      11        0.0%
DATA                 0      0      53      12        0.0%


Microchip Technology PIC Macro Assembler V2.40 build 20220703182018 
Symbol Table                                                                                   Sun Nov 13 05:10:34 2022

                     l94 05E8                       l97 0615                       l89 05D3  
    __Umul8_16@word_mpld 0078                      l100 0642                      l103 065D  
                    l120 0F7B                      l114 0FFF                      l122 0F7F  
                    l131 0F5E                      l123 0F83                      l117 07DF  
                    l126 07F6                      l410 0799                      l403 07AE  
                    l413 07AE                      l510 03BB                      l514 043E  
                    l531 0507                      l523 05B7                      l516 0417  
                    l612 02CF                      l541 054D                      l606 035F  
                    l535 052B                      l552 05AD                      l544 058B  
                    l553 05B7                      l625 0F98                      l618 0353  
                    l650 06A1                      l627 0FAA                      l652 0736  
                    l663 0700                      l664 070C                      l656 06E4  
                    _PR2 0092                      _isr 0F3B             ___flmul@aexp 0038  
           ___flmul@bexp 0039             ___flmul@sign 0033             ___flmul@temp 003E  
           ___flmul@prod 003A             ___fltol@exp1 005D                     l1401 0399  
                   l1411 03B0                     l1403 039D                     l1331 0FA1  
                   l1323 0F85                     l1501 04E5                     l1421 03C9  
                   l1413 03B1                     l1405 039E                     l1333 0FA6  
                   l1325 0F87                     l1503 04EA                     l1431 03D3  
                   l1423 03CB                     l1407 03A3                     l1415 03B3  
                   l1327 0F8E                     l1351 0769                     l1343 074B  
                   l1521 0532                     l1513 051D                     l1505 04F9  
                   l1441 03DD                     l1433 03D5                     l1425 03CD  
                   l1417 03C1                     l1409 03A8                     l1329 0F92  
                   l1601 0067                     l1353 076D                     l1361 0787  
                   l1345 075E                     l1337 0737                     l1531 0540  
                   l1523 0534                     l1515 0526                     l1507 050F  
                   l1443 03DF                     l1435 03D7                     l1427 03CF  
                   l1419 03C5                     l1451 03E7                     l1611 0082  
                   l1603 006F                     l1371 07A3                     l1347 075F  
                   l1339 0742                     l1541 0557                     l1533 0544  
                   l1525 0539                     l1517 052A                     l1509 0514  
                   l1461 0424                     l1453 03E8                     l1445 03E1  
                   l1437 03D9                     l1429 03D1                     l1381 036E  
                   l1373 0360                     l1701 034E                     l1621 00FE  
                   l1613 0090                     l1605 0074                     l1349 0767  
                   l1551 0595                     l1543 0565                     l1535 054A  
                   l1519 052F                     l1527 053B                     l1471 0442  
                   l1463 0428                     l1455 03FF                     l1447 03E3  
                   l1439 03DB                     l1383 0373                     l1391 0383  
                   l1375 0365                     l1703 0357                     l1631 016A  
                   l1623 011A                     l1615 009D                     l1607 0079  
                   l1367 078E                     l1359 0775                     l1711 0689  
                   l1561 05A9                     l1553 059D                     l1545 0569  
                   l1481 046B                     l1529 053F                     l1473 0447  
                   l1465 0429                     l1457 041B                     l1449 03E5  
                   l1393 038B                     l1385 0378                     l1377 0369  
                   l1641 01F4                     l1633 0178                     l1625 0136  
                   l1617 00B8                     l1369 079E                     l1721 06B5  
                   l1713 0699                     l1801 07EF                     l1563 05B2  
                   l1555 05A2                     l1547 0587                     l1539 0552  
                   l1491 047D                     l1483 046F                     l1467 0432  
                   l1459 0422                     l1395 038E                     l1387 0380  
                   l1379 036D                     l1651 0284                     l1643 0202  
                   l1635 0195                     l1627 013F                     l1619 00D4  
                   l1571 0024                     l1731 06EB                     l1723 06C2  
                   l1715 06A9                     l1707 0680                     l1803 07F0  
                   l1811 0F65                     l1565 05B6                     l1557 05A3  
                   l1549 0590                     l1493 0486                     l1485 0476  
                   l1477 0450                     l1469 0436                     l1397 0394  
                   l1389 0381                     l1661 02A9                     l1653 0292  
                   l1645 022D                     l1637 01AC                     l1629 014D  
                   l1581 003B                     l1573 0028                     l1741 0724  
                   l1733 06F6                     l1725 06C9                     l1709 0685  
                   l1805 07F1                     l1821 0F74                     l1813 0F69  
                   l1559 05A7                     l1487 0478                     l1479 0467  
                   l1495 048B                     l1399 0395                     l1671 02CC  
                   l1655 029B                     l1663 02AF                     l1647 0253  
                   l1639 01C9                     l1591 0052                     l1583 003D  
                   l1575 0029                     l1567 001B                     l1743 0729  
                   l1735 06FA                     l1727 06CD                     l1719 06B2  
                   l1831 0F53                     l1751 07AF                     l1823 0F77  
                   l1815 0F6D                     l1807 0F5F                     l1497 04A1  
                   l1489 047C                     l1681 02EB                     l1665 02B3  
                   l1657 029F                     l1649 027B                     l1593 0053  
                   l1585 0045                     l1577 002E                     l1569 0020  
                   l1745 072D                     l1737 0704                     l1729 06DB  
                   l1833 0F5A                     l1761 07BE                     l1753 07B3  
                   l1825 0F78                     l1817 0F6F                     l1809 0F63  
                   l1841 05CD                     l1499 04DF                     l1691 0331  
                   l1683 0304                     l1675 02D4                     l1667 02B4  
                   l1659 02A0                     l1595 0058                     l1587 004A  
                   l1579 0033                     l1747 072E                     l1739 070E  
                   l1835 0FAB                     l1771 07C5                     l1763 07C1  
                   l1755 07B4                     l1827 0F7A                     l1819 0F73  
                   l1851 05E5                     l1693 033B                     l1677 02D9  
                   l1685 030A                     l1669 02B8                     l1597 005D  
                   l1589 004E                     l1829 0F4A                     l1781 07CF  
                   l1773 07CB                     l1765 07C2                     l1757 07B9  
                   l1861 0606                     l1853 05EC                     l1845 05D7  
                   l1837 05B8                     l1695 033D                     l1687 0317  
                   l1679 02E7                     l1599 0065                     l1791 07DB  
                   l1783 07D2                     l1775 07CC                     l1767 07C3  
                   l1759 07BB                     l1919 066F                     l1871 0629  
                   l1863 060C                     l1855 05F3                     l1847 05DD  
                   l1839 05C7                     l1697 0349                     l1689 0322  
                   l1785 07D3                     l1777 07CD                     l1769 07C4  
                   l1793 07E0                     l1881 0646                     l1873 062D  
                   l1865 0612                     l1857 05FC                     l1849 05DF  
                   l1699 034D                     l1787 07D6                     l1779 07CE  
                   l1795 07E6                     l1883 064E                     l1875 0633  
                   l1867 0619                     l1859 0600                     l1789 07D7  
                   l1797 07E9                     l1885 0654                     l1877 0639  
                   l1869 0620                     l1893 0668                     l1799 07EA  
                   l1887 065A                     l1879 063F                     l1889 0661  
                   ?_isr 0070                     u1200 0F92                     u2000 0261  
                   u1201 0F91                     u2011 026D                     u1220 0FA6  
                   u2100 02D9                     u2012 0274                     u1221 0FA5  
                   u2101 02D8                     u2013 027B                     u2005 025C  
                   u2110 02EB                     u1310 079E                     u1230 0742  
                   u1215 0F99                     u2111 02EA                     u1311 079D  
                   u1231 0741                     u1400 03C1                     u2120 02FA  
                   u2040 029F                     u1320 07A3                     u1240 0759  
                   u2200 06C8                     u1401 03C0                     u2041 029E  
                   u2025 027D                     u1321 07A2                     u1305 0790  
                   u2201 06C7                     u1410 03C5                     u1330 036D  
                   u2130 0317                     u1250 076D                     u1411 03C4  
                   u1331 036C                     u2131 0316                     u2035 0294  
                   u1251 076C                     u1500 0447                     u1420 03FF  
                   u1340 0373                     u2140 0331                     u2060 02B3  
                   u1260 0774                     u2220 06EA                     u2300 0F7F  
                   u1501 0446                     u1421 03FE                     u1341 0372  
                   u2141 0330                     u2125 02F5                     u2061 02B2  
                   u1261 0773                     u1245 0754                     u2221 06E9  
                   u2301 0F7E                     u1430 040A                     u1350 0378  
                   u2150 034D                     u2070 02B8                     u2310 0F53  
                   u1511 0459                     u1431 0408                     u1351 0377  
                   u2151 034C                     u2135 0313                     u2071 02B7  
                   u2055 02A2                     u2215 06DC                     u2311 0F52  
                   u1600 050F                     u1520 046B                     u1512 0460  
                   u1440 040B                     u1360 0394                     u2080 02CC  
                   u1280 0786                     u2240 06FA                     u2160 0685  
                   u2320 05D3                     u1601 050E                     u1521 046A  
                   u1513 0467                     u1425 03FB                     u1361 0393  
                   u2145 032D                     u2081 02CB                     u1281 0785  
                   u2241 06F9                     u2161 0684                     u2321 05D2  
                   u1610 0514                     u1530 046F                     u1450 041B  
                   u1370 039D                     u2090 02D3                     u1290 078D  
                   u2250 0700                     u2170 0689                     u2330 05D7  
                   u1611 0513                     u1531 046E                     u1451 041A  
                   u1371 039C                     u2091 02D2                     u1291 078C  
                   u1275 0776                     u2251 06FF                     u2235 06EF  
                   u2171 0688                     u2331 05D6                     u1700 0557  
                   u1540 047C                     u1460 0428                     u1380 03A3  
                   u2260 0704                     u2180 06A9                     u2340 05EC  
                   u1701 0556                     u1541 047B                     u1461 0427  
                   u1381 03A2                     u2261 0703                     u2181 06A8  
                   u2341 05EB                     u1710 0569                     u1630 052A  
                   u1390 03A8                     u2270 0719                     u2350 0619  
                   u1711 0568                     u1631 0529                     u1391 03A7  
                   u2351 0618                     u2407 0610                     u1720 0578  
                   u1640 052F                     u1560 04A1                     u1480 043E  
                   u1800 002E                     u2280 0729                     u2360 0646  
                   u1641 052E                     u1625 051F                     u1561 04A0  
                   u1481 043D                     u1801 002D                     u2281 0728  
                   u2361 0645                     u2417 0631                     u1730 0587  
                   u1650 0539                     u1490 0442                     u1810 0033  
                   u2290 072D                     u2370 0661                     u1731 0586  
                   u1651 0538                     u1571 04B8                     u1563 049D  
                   u1555 047F                     u1491 0441                     u1475 042B  
                   u1811 0032                     u2291 072C                     u2275 0714  
                   u2195 06BA                     u2371 0660                     u2427 063D  
                   u1740 0590                     u1660 053F                     u1580 04CC  
                   u1572 04B9                     u1820 0052                     u1741 058F  
                   u1725 0573                     u1661 053E                     u1581 04CD  
                   u1573 04BE                     u1901 0128                     u1821 0051  
                   u2437 064C                     u1750 0595                     u1670 0544  
                   u1590 04EA                     u1582 04D2                     u1574 04BF  
                   u1902 012F                     u1830 0058                     u1751 0594  
                   u1671 0543                     u1591 04E9                     u1583 04D3  
                   u1575 04C4                     u1903 0136                     u1831 0057  
                   u2447 0658                     u1760 05A2                     u1680 054A  
                   u1576 04C5                     u1840 005D                     u1761 05A1  
                   u1681 0549                     u1921 015C                     u1841 005C  
                   u2457 0665                     u1770 05A7                     u1690 0551  
                   u1922 0163                     u1850 0074                     u1771 05A6  
                   u1691 0550                     u1931 0187                     u1923 016A  
                   u1915 0138                     u1851 0073                     u2467 07F3  
                   u2387 05E3                     u1780 05B6                     u1932 018E  
                   u1860 0079                     u1781 05B5                     u1933 0195  
                   u1861 0078                     u2397 0604                     u1790 0028  
                   u1951 01BB                     u1871 00C6                     u1791 0027  
                   u1952 01C2                     u1872 00CD                     u1961 01E6  
                   u1953 01C9                     u1945 0197                     u1881 00E2  
                   u1873 00D4                     u1962 01ED                     u1882 00E9  
                   u1971 0211                     u1963 01F4                     u1891 010C  
                   u1883 00F0                     u1980 0239                     u1972 0218  
                   u1892 0113                     u1973 021F                     u1893 011A  
                   u1991 0245                     u1992 024C                     u1993 0253  
                   u1985 0234                     i1l82 0F43                     _TMR0 0001  
                   _main 05B8                     _modo 0066                     btemp 007E  
                   start 000C                    ??_isr 0070            ___fltol@sign1 005C  
        __end_of___fladd 05B8                    ?_main 0070          __end_of___flmul 0360  
        __end_of___fltol 07AF                    _ANSEL 0188                    _PORTA 0005  
                  _PORTB 0006                    _PORTC 0007                    _PORTD 0008  
                  _PORTE 0009                    _TRISA 0085                    _TRISB 0086  
                  _TRISC 0087                    _TRISD 0088                    _TRISE 0089  
        __end_of_incModo 0F5F                    _setup 07AF                    pclath 000A  
                  status 0003                    wtemp0 007E          __initialization 000F  
           __end_of_main 067D                   ??_main 0060                   _ADRESH 001E  
                 _CCPR1L 0015                   _CCPR2L 001B                   ?_setup 0070  
                 _ANSELH 0189                   i1l1237 0F3B                   i1l1239 0F42  
                 u113_20 0F42                   u113_21 0F41         __end_of___xxtofl 0737  
           ??_ADC_to_PWM 007B                ??___fladd 0048                ??___flmul 002E  
              ??___fltol 0058                ??_incModo 0072         __end_of_setupADC 07F7  
       __end_of_setupPWM 0F84                   saved_w 007E       __end_of_ADC_to_PWM 1000  
           ___xxtofl@arg 0022             ___xxtofl@exp 0021             ___xxtofl@val 0072  
__end_of__initialization 0017               ___fltol@f1 0054           __pcstackCOMMON 0070  
          __end_of_setup 07E0           _OPTION_REGbits 0081                  ??_setup 0072  
             __pbssBANK0 0062        __end_of__Umul8_16 0FAB               __pmaintext 05B8  
             __pintentry 0004                ?___xxtofl 0072                ?_setupADC 0070  
              ?_setupPWM 0070                  ___fladd 0360                  ___flmul 001B  
                ___fltol 0737               _equivalent 0062                  __ptext1 0F5F  
                __ptext2 07E0                  __ptext3 07AF                  __ptext4 0F4A  
                __ptext5 0FAB                  __ptext6 067D                  __ptext7 0737  
                __ptext8 001B                  __ptext9 0F84                  _incModo 0F4A  
              _T2CONbits 0012               ??___xxtofl 0076     end_of_initialization 0017  
             ??_setupADC 0072               ??_setupPWM 0072                _PORTEbits 0009  
            ___fladd@grs 0053            ___xxtofl@sign 0020                _TRISCbits 0087  
            ___flmul@grs 0034              _CCP1CONbits 0017              _CCP2CONbits 001D  
    start_initialization 000F              __end_of_isr 0F4A              _ADC_Voltaje 0064  
              __Umul8_16 0F84                ___fladd@a 0044                ___fladd@b 0040  
              ___flmul@a 002A                ___flmul@b 0026                ___latbits 0002  
          __pcstackBANK0 0020                 ?___fladd 0040                 ?___flmul 0026  
               ?___fltol 0054               ?__Umul8_16 0072                 ?_incModo 0070  
      interrupt_function 0004                 _PIE1bits 008C                 _PIR1bits 000C  
             _ADCON0bits 001F               _ADCON1bits 009F        ADC_to_PWM@voltaje 005E  
             _ADC_to_PWM 0FAB              ??__Umul8_16 0074                 ___xxtofl 067D  
               __ptext10 0360                 __ptext11 0F3B                 _setupADC 07E0  
               _setupPWM 0F5F               _INTCONbits 000B                 intlevel1 0000  
             _OSCCONbits 008F              ?_ADC_to_PWM 005E   __Umul8_16@multiplicand 0072  
          ___fladd@signs 0050             ___fladd@aexp 0051             ___fladd@bexp 0052  
   __Umul8_16@multiplier 007A        __Umul8_16@product 0076  
